
notes/asm:     file format elf64-x86-64


Disassembly of section .init:

0000000000400430 <_init>:
  400430:	48 83 ec 08          	sub    $0x8,%rsp
  400434:	48 8b 05 b5 0e 20 00 	mov    0x200eb5(%rip),%rax        # 6012f0 <_DYNAMIC+0x200>
  40043b:	48 85 c0             	test   %rax,%rax
  40043e:	74 05                	je     400445 <_init+0x15>
  400440:	e8 1b 00 00 00       	callq  400460 <__gmon_start__@plt>
  400445:	48 83 c4 08          	add    $0x8,%rsp
  400449:	c3                   	retq   

Disassembly of section .plt:

0000000000400450 <__gmon_start__@plt-0x10>:
  400450:	ff 35 aa 0e 20 00    	pushq  0x200eaa(%rip)        # 601300 <_GLOBAL_OFFSET_TABLE_+0x8>
  400456:	ff 25 ac 0e 20 00    	jmpq   *0x200eac(%rip)        # 601308 <_GLOBAL_OFFSET_TABLE_+0x10>
  40045c:	0f 1f 40 00          	nopl   0x0(%rax)

0000000000400460 <__gmon_start__@plt>:
  400460:	ff 25 aa 0e 20 00    	jmpq   *0x200eaa(%rip)        # 601310 <_GLOBAL_OFFSET_TABLE_+0x18>
  400466:	68 00 00 00 00       	pushq  $0x0
  40046b:	e9 e0 ff ff ff       	jmpq   400450 <_init+0x20>

0000000000400470 <__libc_start_main@plt>:
  400470:	ff 25 a2 0e 20 00    	jmpq   *0x200ea2(%rip)        # 601318 <_GLOBAL_OFFSET_TABLE_+0x20>
  400476:	68 01 00 00 00       	pushq  $0x1
  40047b:	e9 d0 ff ff ff       	jmpq   400450 <_init+0x20>

Disassembly of section .text:

0000000000400480 <_start>:
  400480:	31 ed                	xor    %ebp,%ebp
  400482:	49 89 d1             	mov    %rdx,%r9
  400485:	5e                   	pop    %rsi
  400486:	48 89 e2             	mov    %rsp,%rdx
  400489:	48 83 e4 f0          	and    $0xfffffffffffffff0,%rsp
  40048d:	50                   	push   %rax
  40048e:	54                   	push   %rsp
  40048f:	49 c7 c0 c0 0f 40 00 	mov    $0x400fc0,%r8
  400496:	48 c7 c1 50 0f 40 00 	mov    $0x400f50,%rcx
  40049d:	48 c7 c7 76 05 40 00 	mov    $0x400576,%rdi
  4004a4:	e8 c7 ff ff ff       	callq  400470 <__libc_start_main@plt>
  4004a9:	f4                   	hlt    
  4004aa:	66 0f 1f 44 00 00    	nopw   0x0(%rax,%rax,1)

00000000004004b0 <deregister_tm_clones>:
  4004b0:	b8 37 13 60 00       	mov    $0x601337,%eax
  4004b5:	55                   	push   %rbp
  4004b6:	48 2d 30 13 60 00    	sub    $0x601330,%rax
  4004bc:	48 83 f8 0e          	cmp    $0xe,%rax
  4004c0:	48 89 e5             	mov    %rsp,%rbp
  4004c3:	76 1b                	jbe    4004e0 <deregister_tm_clones+0x30>
  4004c5:	b8 00 00 00 00       	mov    $0x0,%eax
  4004ca:	48 85 c0             	test   %rax,%rax
  4004cd:	74 11                	je     4004e0 <deregister_tm_clones+0x30>
  4004cf:	5d                   	pop    %rbp
  4004d0:	bf 30 13 60 00       	mov    $0x601330,%edi
  4004d5:	ff e0                	jmpq   *%rax
  4004d7:	66 0f 1f 84 00 00 00 	nopw   0x0(%rax,%rax,1)
  4004de:	00 00 
  4004e0:	5d                   	pop    %rbp
  4004e1:	c3                   	retq   
  4004e2:	66 66 66 66 66 2e 0f 	data16 data16 data16 data16 nopw %cs:0x0(%rax,%rax,1)
  4004e9:	1f 84 00 00 00 00 00 

00000000004004f0 <register_tm_clones>:
  4004f0:	be 30 13 60 00       	mov    $0x601330,%esi
  4004f5:	55                   	push   %rbp
  4004f6:	48 81 ee 30 13 60 00 	sub    $0x601330,%rsi
  4004fd:	48 c1 fe 03          	sar    $0x3,%rsi
  400501:	48 89 e5             	mov    %rsp,%rbp
  400504:	48 89 f0             	mov    %rsi,%rax
  400507:	48 c1 e8 3f          	shr    $0x3f,%rax
  40050b:	48 01 c6             	add    %rax,%rsi
  40050e:	48 d1 fe             	sar    %rsi
  400511:	74 15                	je     400528 <register_tm_clones+0x38>
  400513:	b8 00 00 00 00       	mov    $0x0,%eax
  400518:	48 85 c0             	test   %rax,%rax
  40051b:	74 0b                	je     400528 <register_tm_clones+0x38>
  40051d:	5d                   	pop    %rbp
  40051e:	bf 30 13 60 00       	mov    $0x601330,%edi
  400523:	ff e0                	jmpq   *%rax
  400525:	0f 1f 00             	nopl   (%rax)
  400528:	5d                   	pop    %rbp
  400529:	c3                   	retq   
  40052a:	66 0f 1f 44 00 00    	nopw   0x0(%rax,%rax,1)

0000000000400530 <__do_global_dtors_aux>:
  400530:	80 3d f9 0d 20 00 00 	cmpb   $0x0,0x200df9(%rip)        # 601330 <__TMC_END__>
  400537:	75 11                	jne    40054a <__do_global_dtors_aux+0x1a>
  400539:	55                   	push   %rbp
  40053a:	48 89 e5             	mov    %rsp,%rbp
  40053d:	e8 6e ff ff ff       	callq  4004b0 <deregister_tm_clones>
  400542:	5d                   	pop    %rbp
  400543:	c6 05 e6 0d 20 00 01 	movb   $0x1,0x200de6(%rip)        # 601330 <__TMC_END__>
  40054a:	f3 c3                	repz retq 
  40054c:	0f 1f 40 00          	nopl   0x0(%rax)

0000000000400550 <frame_dummy>:
  400550:	bf e8 10 60 00       	mov    $0x6010e8,%edi
  400555:	48 83 3f 00          	cmpq   $0x0,(%rdi)
  400559:	75 05                	jne    400560 <frame_dummy+0x10>
  40055b:	eb 93                	jmp    4004f0 <register_tm_clones>
  40055d:	0f 1f 00             	nopl   (%rax)
  400560:	b8 00 00 00 00       	mov    $0x0,%eax
  400565:	48 85 c0             	test   %rax,%rax
  400568:	74 f1                	je     40055b <frame_dummy+0xb>
  40056a:	55                   	push   %rbp
  40056b:	48 89 e5             	mov    %rsp,%rbp
  40056e:	ff d0                	callq  *%rax
  400570:	5d                   	pop    %rbp
  400571:	e9 7a ff ff ff       	jmpq   4004f0 <register_tm_clones>

0000000000400576 <main>:
  400576:	0f 05                	syscall 

0000000000400578 <system>:
  400578:	0f 05                	syscall 
  40057a:	0f 34                	sysenter 
  40057c:	0f 35                	sysexit 
  40057e:	cd 80                	int    $0x80

0000000000400580 <inc>:
  400580:	48 ff c3             	inc    %rbx
  400583:	48 ff 00             	incq   (%rax)
  400586:	48 ff 03             	incq   (%rbx)
  400589:	48 ff 04 0b          	incq   (%rbx,%rcx,1)
  40058d:	48 ff 04 cb          	incq   (%rbx,%rcx,8)
  400591:	48 ff 04 cb          	incq   (%rbx,%rcx,8)
  400595:	48 ff 44 d8 11       	incq   0x11(%rax,%rbx,8)
  40059a:	48 ff 84 d8 bc cc dd 	incq   -0x11223344(%rax,%rbx,8)
  4005a1:	ee 
  4005a2:	4a ff 84 fb dd fe ff 	incq   -0x123(%rbx,%r15,8)
  4005a9:	ff 
  4005aa:	48 ff 44 ed 00       	incq   0x0(%rbp,%rbp,8)
  4005af:	48 ff 45 00          	incq   0x0(%rbp)
  4005b3:	48 ff 04 24          	incq   (%rsp)
  4005b7:	49 ff 04 24          	incq   (%r12)
  4005bb:	49 ff 45 00          	incq   0x0(%r13)
  4005bf:	49 ff c7             	inc    %r15
  4005c2:	48 ff 04 25 11 00 00 	incq   0x11
  4005c9:	00 
  4005ca:	48 ff 04 25 44 33 22 	incq   0x11223344
  4005d1:	11 

00000000004005d2 <dec>:
  4005d2:	48 ff c8             	dec    %rax

00000000004005d5 <mov>:
  4005d5:	48 89 c0             	mov    %rax,%rax
  4005d8:	48 89 c3             	mov    %rax,%rbx
  4005db:	48 89 00             	mov    %rax,(%rax)
  4005de:	48 89 19             	mov    %rbx,(%rcx)
  4005e1:	48 8b 13             	mov    (%rbx),%rdx
  4005e4:	4d 89 c1             	mov    %r8,%r9
  4005e7:	4d 89 13             	mov    %r10,(%r11)
  4005ea:	4d 8b 2c 24          	mov    (%r12),%r13
  4005ee:	48 8b 4b 11          	mov    0x11(%rbx),%rcx
  4005f2:	48 8b 34 11          	mov    (%rcx,%rdx,1),%rsi
  4005f6:	48 8b 8c 98 34 12 00 	mov    0x1234(%rax,%rbx,4),%rcx
  4005fd:	00 
  4005fe:	48 8b 2c 25 01 00 00 	mov    0x1,%rbp
  400605:	00 
  400606:	48 8b 24 25 01 00 00 	mov    0x1,%rsp
  40060d:	00 
  40060e:	48 89 1c 24          	mov    %rbx,(%rsp)
  400612:	48 89 dc             	mov    %rbx,%rsp
  400615:	48 89 5d 00          	mov    %rbx,0x0(%rbp)
  400619:	48 89 1c 6c          	mov    %rbx,(%rsp,%rbp,2)
  40061d:	48 8b 5c c5 00       	mov    0x0(%rbp,%rax,8),%rbx
  400622:	48 8b 2c 55 00 00 00 	mov    0x0(,%rdx,2),%rbp
  400629:	00 
  40062a:	48 89 24 ed dd fe ff 	mov    %rsp,-0x123(,%rbp,8)
  400631:	ff 
  400632:	48 c7 c0 01 00 00 00 	mov    $0x1,%rax
  400639:	48 c7 c5 cd cc ff ff 	mov    $0xffffffffffffcccd,%rbp
  400640:	48 c7 c4 cd cc cc ff 	mov    $0xffffffffffcccccd,%rsp

0000000000400647 <add>:
  400647:	48 01 04 25 04 00 00 	add    %rax,0x4
  40064e:	00 

000000000040064f <ret>:
  40064f:	c3                   	retq   
  400650:	c3                   	retq   
  400651:	c2 04 00             	retq   $0x4
  400654:	c2 10 00             	retq   $0x10

0000000000400657 <test2>:
  400657:	41 ff ca             	dec    %r10d
  40065a:	89 c3                	mov    %eax,%ebx
  40065c:	48 89 c0             	mov    %rax,%rax
  40065f:	48 89 00             	mov    %rax,(%rax)
  400662:	48 8b 03             	mov    (%rbx),%rax
  400665:	4d 89 e4             	mov    %r12,%r12
  400668:	4d 8b 24 24          	mov    (%r12),%r12
  40066c:	4d 89 24 24          	mov    %r12,(%r12)

0000000000400670 <push>:
  400670:	50                   	push   %rax
  400671:	53                   	push   %rbx
  400672:	51                   	push   %rcx
  400673:	52                   	push   %rdx
  400674:	54                   	push   %rsp
  400675:	55                   	push   %rbp
  400676:	57                   	push   %rdi
  400677:	56                   	push   %rsi
  400678:	41 50                	push   %r8
  40067a:	41 51                	push   %r9
  40067c:	58                   	pop    %rax
  40067d:	5b                   	pop    %rbx
  40067e:	41 58                	pop    %r8
  400680:	41 59                	pop    %r9
  400682:	41 5a                	pop    %r10

0000000000400684 <mov_r_r>:
  400684:	48 89 d8             	mov    %rbx,%rax
  400687:	89 c3                	mov    %eax,%ebx

0000000000400689 <mov_imm_r>:
  400689:	48 89 c0             	mov    %rax,%rax
  40068c:	48 c7 c0 11 00 00 00 	mov    $0x11,%rax
  400693:	b8 44 33 22 11       	mov    $0x11223344,%eax
  400698:	bb 44 33 22 11       	mov    $0x11223344,%ebx
  40069d:	bc 44 33 22 11       	mov    $0x11223344,%esp
  4006a2:	41 bc 44 33 22 11    	mov    $0x11223344,%r12d
  4006a8:	48 c7 c0 44 33 22 11 	mov    $0x11223344,%rax
  4006af:	48 b8 88 77 66 55 44 	movabs $0x1122334455667788,%rax
  4006b6:	33 22 11 
  4006b9:	49 bf 88 77 66 55 44 	movabs $0x1122334455667788,%r15
  4006c0:	33 22 11 

00000000004006c3 <mov_m_r>:
  4006c3:	48 8b 03             	mov    (%rbx),%rax
  4006c6:	49 8b 01             	mov    (%r9),%rax
  4006c9:	4c 8b 03             	mov    (%rbx),%r8
  4006cc:	4d 8b 01             	mov    (%r9),%r8
  4006cf:	4d 8b 41 11          	mov    0x11(%r9),%r8
  4006d3:	4b 8b 5c e3 11       	mov    0x11(%r11,%r12,8),%rbx

00000000004006d8 <mov_r_m>:
  4006d8:	48 89 00             	mov    %rax,(%rax)
  4006db:	48 89 18             	mov    %rbx,(%rax)
  4006de:	48 89 08             	mov    %rcx,(%rax)
  4006e1:	48 89 10             	mov    %rdx,(%rax)
  4006e4:	48 89 30             	mov    %rsi,(%rax)
  4006e7:	48 89 38             	mov    %rdi,(%rax)
  4006ea:	48 89 28             	mov    %rbp,(%rax)
  4006ed:	48 89 20             	mov    %rsp,(%rax)
  4006f0:	4c 89 00             	mov    %r8,(%rax)
  4006f3:	4c 89 08             	mov    %r9,(%rax)
  4006f6:	49 89 00             	mov    %rax,(%r8)
  4006f9:	49 89 18             	mov    %rbx,(%r8)
  4006fc:	49 89 08             	mov    %rcx,(%r8)
  4006ff:	49 89 10             	mov    %rdx,(%r8)
  400702:	49 89 30             	mov    %rsi,(%r8)
  400705:	49 89 38             	mov    %rdi,(%r8)
  400708:	49 89 28             	mov    %rbp,(%r8)
  40070b:	49 89 20             	mov    %rsp,(%r8)
  40070e:	4d 89 00             	mov    %r8,(%r8)
  400711:	4d 89 08             	mov    %r9,(%r8)
  400714:	4d 89 10             	mov    %r10,(%r8)
  400717:	4d 89 18             	mov    %r11,(%r8)
  40071a:	4d 89 20             	mov    %r12,(%r8)
  40071d:	4d 89 28             	mov    %r13,(%r8)
  400720:	4d 89 30             	mov    %r14,(%r8)
  400723:	4d 89 38             	mov    %r15,(%r8)
  400726:	49 89 1b             	mov    %rbx,(%r11)
  400729:	49 89 1c 24          	mov    %rbx,(%r12)
  40072d:	49 89 5d 00          	mov    %rbx,0x0(%r13)
  400731:	49 89 1e             	mov    %rbx,(%r14)
  400734:	49 89 1f             	mov    %rbx,(%r15)

0000000000400737 <test>:
  400737:	48 89 c0             	mov    %rax,%rax
  40073a:	48 89 d8             	mov    %rbx,%rax
  40073d:	48 8b 00             	mov    (%rax),%rax
  400740:	48 89 00             	mov    %rax,(%rax)
  400743:	48 c7 00 0b 00 00 00 	movq   $0xb,(%rax)
  40074a:	48 8b 40 11          	mov    0x11(%rax),%rax
  40074e:	48 89 40 11          	mov    %rax,0x11(%rax)
  400752:	48 8b 04 0b          	mov    (%rbx,%rcx,1),%rax
  400756:	48 89 04 0b          	mov    %rax,(%rbx,%rcx,1)
  40075a:	48 8b 04 4b          	mov    (%rbx,%rcx,2),%rax
  40075e:	48 89 04 4b          	mov    %rax,(%rbx,%rcx,2)
  400762:	48 8b 44 0b 11       	mov    0x11(%rbx,%rcx,1),%rax
  400767:	48 89 44 0b 11       	mov    %rax,0x11(%rbx,%rcx,1)
  40076c:	48 8b 44 8b 11       	mov    0x11(%rbx,%rcx,4),%rax
  400771:	48 89 44 8b 11       	mov    %rax,0x11(%rbx,%rcx,4)

0000000000400776 <mov_i32_r>:
  400776:	48 c7 c0 44 33 22 11 	mov    $0x11223344,%rax
  40077d:	48 c7 c3 44 33 22 11 	mov    $0x11223344,%rbx
  400784:	48 c7 c1 44 33 22 11 	mov    $0x11223344,%rcx
  40078b:	48 c7 c2 44 33 22 11 	mov    $0x11223344,%rdx
  400792:	48 c7 c6 44 33 22 11 	mov    $0x11223344,%rsi
  400799:	48 c7 c7 44 33 22 11 	mov    $0x11223344,%rdi
  4007a0:	48 c7 c5 44 33 22 11 	mov    $0x11223344,%rbp
  4007a7:	48 c7 c4 44 33 22 11 	mov    $0x11223344,%rsp
  4007ae:	49 c7 c0 44 33 22 11 	mov    $0x11223344,%r8
  4007b5:	49 c7 c1 44 33 22 11 	mov    $0x11223344,%r9
  4007bc:	49 c7 c2 44 33 22 11 	mov    $0x11223344,%r10
  4007c3:	49 c7 c3 44 33 22 11 	mov    $0x11223344,%r11
  4007ca:	49 c7 c4 44 33 22 11 	mov    $0x11223344,%r12
  4007d1:	49 c7 c5 44 33 22 11 	mov    $0x11223344,%r13
  4007d8:	49 c7 c6 44 33 22 11 	mov    $0x11223344,%r14
  4007df:	49 c7 c7 44 33 22 11 	mov    $0x11223344,%r15

00000000004007e6 <mov_i64_r>:
  4007e6:	48 b8 88 77 66 55 44 	movabs $0x1122334455667788,%rax
  4007ed:	33 22 11 
  4007f0:	48 bb 88 77 66 55 44 	movabs $0x1122334455667788,%rbx
  4007f7:	33 22 11 
  4007fa:	48 b9 88 77 66 55 44 	movabs $0x1122334455667788,%rcx
  400801:	33 22 11 
  400804:	48 ba 88 77 66 55 44 	movabs $0x1122334455667788,%rdx
  40080b:	33 22 11 
  40080e:	48 be 88 77 66 55 44 	movabs $0x1122334455667788,%rsi
  400815:	33 22 11 
  400818:	48 bf 88 77 66 55 44 	movabs $0x1122334455667788,%rdi
  40081f:	33 22 11 
  400822:	48 bd 88 77 66 55 44 	movabs $0x1122334455667788,%rbp
  400829:	33 22 11 
  40082c:	48 bc 88 77 66 55 44 	movabs $0x1122334455667788,%rsp
  400833:	33 22 11 
  400836:	49 b8 88 77 66 55 44 	movabs $0x1122334455667788,%r8
  40083d:	33 22 11 
  400840:	49 b9 88 77 66 55 44 	movabs $0x1122334455667788,%r9
  400847:	33 22 11 
  40084a:	49 ba 88 77 66 55 44 	movabs $0x1122334455667788,%r10
  400851:	33 22 11 
  400854:	49 bb 88 77 66 55 44 	movabs $0x1122334455667788,%r11
  40085b:	33 22 11 
  40085e:	49 bc 88 77 66 55 44 	movabs $0x1122334455667788,%r12
  400865:	33 22 11 
  400868:	49 bd 88 77 66 55 44 	movabs $0x1122334455667788,%r13
  40086f:	33 22 11 
  400872:	49 be 88 77 66 55 44 	movabs $0x1122334455667788,%r14
  400879:	33 22 11 
  40087c:	49 bf 88 77 66 55 44 	movabs $0x1122334455667788,%r15
  400883:	33 22 11 

0000000000400886 <mov_r_rax>:
  400886:	48 89 c0             	mov    %rax,%rax
  400889:	48 89 d8             	mov    %rbx,%rax
  40088c:	48 89 c8             	mov    %rcx,%rax
  40088f:	48 89 d0             	mov    %rdx,%rax
  400892:	48 89 f0             	mov    %rsi,%rax
  400895:	48 89 f8             	mov    %rdi,%rax
  400898:	48 89 e8             	mov    %rbp,%rax
  40089b:	48 89 e0             	mov    %rsp,%rax
  40089e:	4c 89 c0             	mov    %r8,%rax
  4008a1:	4c 89 c8             	mov    %r9,%rax
  4008a4:	4c 89 d0             	mov    %r10,%rax
  4008a7:	4c 89 d8             	mov    %r11,%rax
  4008aa:	4c 89 e0             	mov    %r12,%rax
  4008ad:	4c 89 e8             	mov    %r13,%rax
  4008b0:	4c 89 f0             	mov    %r14,%rax
  4008b3:	4c 89 f8             	mov    %r15,%rax

00000000004008b6 <mov_r_rbx>:
  4008b6:	48 89 c3             	mov    %rax,%rbx
  4008b9:	48 89 db             	mov    %rbx,%rbx
  4008bc:	48 89 cb             	mov    %rcx,%rbx
  4008bf:	48 89 d3             	mov    %rdx,%rbx
  4008c2:	48 89 f3             	mov    %rsi,%rbx
  4008c5:	48 89 fb             	mov    %rdi,%rbx
  4008c8:	48 89 eb             	mov    %rbp,%rbx
  4008cb:	48 89 e3             	mov    %rsp,%rbx
  4008ce:	4c 89 c3             	mov    %r8,%rbx
  4008d1:	4c 89 cb             	mov    %r9,%rbx
  4008d4:	4c 89 d3             	mov    %r10,%rbx
  4008d7:	4c 89 db             	mov    %r11,%rbx
  4008da:	4c 89 e3             	mov    %r12,%rbx
  4008dd:	4c 89 eb             	mov    %r13,%rbx
  4008e0:	4c 89 f3             	mov    %r14,%rbx
  4008e3:	4c 89 fb             	mov    %r15,%rbx

00000000004008e6 <mov_r_rcx>:
  4008e6:	48 89 c1             	mov    %rax,%rcx
  4008e9:	48 89 d9             	mov    %rbx,%rcx
  4008ec:	48 89 c9             	mov    %rcx,%rcx
  4008ef:	48 89 d1             	mov    %rdx,%rcx
  4008f2:	48 89 f1             	mov    %rsi,%rcx
  4008f5:	48 89 f9             	mov    %rdi,%rcx
  4008f8:	48 89 e9             	mov    %rbp,%rcx
  4008fb:	48 89 e1             	mov    %rsp,%rcx
  4008fe:	4c 89 c1             	mov    %r8,%rcx
  400901:	4c 89 c9             	mov    %r9,%rcx
  400904:	4c 89 d1             	mov    %r10,%rcx
  400907:	4c 89 d9             	mov    %r11,%rcx
  40090a:	4c 89 e1             	mov    %r12,%rcx
  40090d:	4c 89 e9             	mov    %r13,%rcx
  400910:	4c 89 f1             	mov    %r14,%rcx
  400913:	4c 89 f9             	mov    %r15,%rcx

0000000000400916 <mov_r_rdx>:
  400916:	48 89 c2             	mov    %rax,%rdx
  400919:	48 89 da             	mov    %rbx,%rdx
  40091c:	48 89 ca             	mov    %rcx,%rdx
  40091f:	48 89 d2             	mov    %rdx,%rdx
  400922:	48 89 f2             	mov    %rsi,%rdx
  400925:	48 89 fa             	mov    %rdi,%rdx
  400928:	48 89 ea             	mov    %rbp,%rdx
  40092b:	48 89 e2             	mov    %rsp,%rdx
  40092e:	4c 89 c2             	mov    %r8,%rdx
  400931:	4c 89 ca             	mov    %r9,%rdx
  400934:	4c 89 d2             	mov    %r10,%rdx
  400937:	4c 89 da             	mov    %r11,%rdx
  40093a:	4c 89 e2             	mov    %r12,%rdx
  40093d:	4c 89 ea             	mov    %r13,%rdx
  400940:	4c 89 f2             	mov    %r14,%rdx
  400943:	4c 89 fa             	mov    %r15,%rdx

0000000000400946 <mov_r_rsi>:
  400946:	48 89 c6             	mov    %rax,%rsi
  400949:	48 89 de             	mov    %rbx,%rsi
  40094c:	48 89 ce             	mov    %rcx,%rsi
  40094f:	48 89 d6             	mov    %rdx,%rsi
  400952:	48 89 f6             	mov    %rsi,%rsi
  400955:	48 89 fe             	mov    %rdi,%rsi
  400958:	48 89 ee             	mov    %rbp,%rsi
  40095b:	48 89 e6             	mov    %rsp,%rsi
  40095e:	4c 89 c6             	mov    %r8,%rsi
  400961:	4c 89 ce             	mov    %r9,%rsi
  400964:	4c 89 d6             	mov    %r10,%rsi
  400967:	4c 89 de             	mov    %r11,%rsi
  40096a:	4c 89 e6             	mov    %r12,%rsi
  40096d:	4c 89 ee             	mov    %r13,%rsi
  400970:	4c 89 f6             	mov    %r14,%rsi
  400973:	4c 89 fe             	mov    %r15,%rsi

0000000000400976 <mov_r_rdi>:
  400976:	48 89 c7             	mov    %rax,%rdi
  400979:	48 89 df             	mov    %rbx,%rdi
  40097c:	48 89 cf             	mov    %rcx,%rdi
  40097f:	48 89 d7             	mov    %rdx,%rdi
  400982:	48 89 f7             	mov    %rsi,%rdi
  400985:	48 89 ff             	mov    %rdi,%rdi
  400988:	48 89 ef             	mov    %rbp,%rdi
  40098b:	48 89 e7             	mov    %rsp,%rdi
  40098e:	4c 89 c7             	mov    %r8,%rdi
  400991:	4c 89 cf             	mov    %r9,%rdi
  400994:	4c 89 d7             	mov    %r10,%rdi
  400997:	4c 89 df             	mov    %r11,%rdi
  40099a:	4c 89 e7             	mov    %r12,%rdi
  40099d:	4c 89 ef             	mov    %r13,%rdi
  4009a0:	4c 89 f7             	mov    %r14,%rdi
  4009a3:	4c 89 ff             	mov    %r15,%rdi

00000000004009a6 <mov_r_rbp>:
  4009a6:	48 89 c5             	mov    %rax,%rbp
  4009a9:	48 89 dd             	mov    %rbx,%rbp
  4009ac:	48 89 cd             	mov    %rcx,%rbp
  4009af:	48 89 d5             	mov    %rdx,%rbp
  4009b2:	48 89 f5             	mov    %rsi,%rbp
  4009b5:	48 89 fd             	mov    %rdi,%rbp
  4009b8:	48 89 ed             	mov    %rbp,%rbp
  4009bb:	48 89 e5             	mov    %rsp,%rbp
  4009be:	4c 89 c5             	mov    %r8,%rbp
  4009c1:	4c 89 cd             	mov    %r9,%rbp
  4009c4:	4c 89 d5             	mov    %r10,%rbp
  4009c7:	4c 89 dd             	mov    %r11,%rbp
  4009ca:	4c 89 e5             	mov    %r12,%rbp
  4009cd:	4c 89 ed             	mov    %r13,%rbp
  4009d0:	4c 89 f5             	mov    %r14,%rbp
  4009d3:	4c 89 fd             	mov    %r15,%rbp

00000000004009d6 <mov_r_rsp>:
  4009d6:	48 89 c4             	mov    %rax,%rsp
  4009d9:	48 89 dc             	mov    %rbx,%rsp
  4009dc:	48 89 cc             	mov    %rcx,%rsp
  4009df:	48 89 d4             	mov    %rdx,%rsp
  4009e2:	48 89 f4             	mov    %rsi,%rsp
  4009e5:	48 89 fc             	mov    %rdi,%rsp
  4009e8:	48 89 ec             	mov    %rbp,%rsp
  4009eb:	48 89 e4             	mov    %rsp,%rsp
  4009ee:	4c 89 c4             	mov    %r8,%rsp
  4009f1:	4c 89 cc             	mov    %r9,%rsp
  4009f4:	4c 89 d4             	mov    %r10,%rsp
  4009f7:	4c 89 dc             	mov    %r11,%rsp
  4009fa:	4c 89 e4             	mov    %r12,%rsp
  4009fd:	4c 89 ec             	mov    %r13,%rsp
  400a00:	4c 89 f4             	mov    %r14,%rsp
  400a03:	4c 89 fc             	mov    %r15,%rsp

0000000000400a06 <mov_r_r8>:
  400a06:	48 89 c4             	mov    %rax,%rsp
  400a09:	49 89 d8             	mov    %rbx,%r8
  400a0c:	49 89 c8             	mov    %rcx,%r8
  400a0f:	49 89 d0             	mov    %rdx,%r8
  400a12:	49 89 f0             	mov    %rsi,%r8
  400a15:	49 89 f8             	mov    %rdi,%r8
  400a18:	49 89 e8             	mov    %rbp,%r8
  400a1b:	49 89 e0             	mov    %rsp,%r8
  400a1e:	4d 89 c0             	mov    %r8,%r8
  400a21:	4d 89 c8             	mov    %r9,%r8
  400a24:	4d 89 d0             	mov    %r10,%r8
  400a27:	4d 89 d8             	mov    %r11,%r8
  400a2a:	4d 89 e0             	mov    %r12,%r8
  400a2d:	4d 89 e8             	mov    %r13,%r8
  400a30:	4d 89 f0             	mov    %r14,%r8
  400a33:	4d 89 f8             	mov    %r15,%r8

0000000000400a36 <mov_r_r9>:
  400a36:	48 89 c4             	mov    %rax,%rsp
  400a39:	49 89 d9             	mov    %rbx,%r9
  400a3c:	49 89 c9             	mov    %rcx,%r9
  400a3f:	49 89 d1             	mov    %rdx,%r9
  400a42:	49 89 f1             	mov    %rsi,%r9
  400a45:	49 89 f9             	mov    %rdi,%r9
  400a48:	49 89 e9             	mov    %rbp,%r9
  400a4b:	49 89 e1             	mov    %rsp,%r9
  400a4e:	4d 89 c1             	mov    %r8,%r9
  400a51:	4d 89 c9             	mov    %r9,%r9
  400a54:	4d 89 d1             	mov    %r10,%r9
  400a57:	4d 89 d9             	mov    %r11,%r9
  400a5a:	4d 89 e1             	mov    %r12,%r9
  400a5d:	4d 89 e9             	mov    %r13,%r9
  400a60:	4d 89 f1             	mov    %r14,%r9
  400a63:	4d 89 f9             	mov    %r15,%r9

0000000000400a66 <mov_r_r10>:
  400a66:	48 89 c4             	mov    %rax,%rsp
  400a69:	49 89 da             	mov    %rbx,%r10
  400a6c:	49 89 ca             	mov    %rcx,%r10
  400a6f:	49 89 d2             	mov    %rdx,%r10
  400a72:	49 89 f2             	mov    %rsi,%r10
  400a75:	49 89 fa             	mov    %rdi,%r10
  400a78:	49 89 ea             	mov    %rbp,%r10
  400a7b:	49 89 e2             	mov    %rsp,%r10
  400a7e:	4d 89 c2             	mov    %r8,%r10
  400a81:	4d 89 ca             	mov    %r9,%r10
  400a84:	4d 89 d2             	mov    %r10,%r10
  400a87:	4d 89 da             	mov    %r11,%r10
  400a8a:	4d 89 e2             	mov    %r12,%r10
  400a8d:	4d 89 ea             	mov    %r13,%r10
  400a90:	4d 89 f2             	mov    %r14,%r10
  400a93:	4d 89 fa             	mov    %r15,%r10

0000000000400a96 <mov_r_r11>:
  400a96:	48 89 c4             	mov    %rax,%rsp
  400a99:	49 89 db             	mov    %rbx,%r11
  400a9c:	49 89 cb             	mov    %rcx,%r11
  400a9f:	49 89 d3             	mov    %rdx,%r11
  400aa2:	49 89 f3             	mov    %rsi,%r11
  400aa5:	49 89 fb             	mov    %rdi,%r11
  400aa8:	49 89 eb             	mov    %rbp,%r11
  400aab:	49 89 e3             	mov    %rsp,%r11
  400aae:	4d 89 c3             	mov    %r8,%r11
  400ab1:	4d 89 cb             	mov    %r9,%r11
  400ab4:	4d 89 d3             	mov    %r10,%r11
  400ab7:	4d 89 db             	mov    %r11,%r11
  400aba:	4d 89 e3             	mov    %r12,%r11
  400abd:	4d 89 eb             	mov    %r13,%r11
  400ac0:	4d 89 f3             	mov    %r14,%r11
  400ac3:	4d 89 fb             	mov    %r15,%r11

0000000000400ac6 <mov_r_r12>:
  400ac6:	48 89 c4             	mov    %rax,%rsp
  400ac9:	49 89 dc             	mov    %rbx,%r12
  400acc:	49 89 cc             	mov    %rcx,%r12
  400acf:	49 89 d4             	mov    %rdx,%r12
  400ad2:	49 89 f4             	mov    %rsi,%r12
  400ad5:	49 89 fc             	mov    %rdi,%r12
  400ad8:	49 89 ec             	mov    %rbp,%r12
  400adb:	49 89 e4             	mov    %rsp,%r12
  400ade:	4d 89 c4             	mov    %r8,%r12
  400ae1:	4d 89 cc             	mov    %r9,%r12
  400ae4:	4d 89 d4             	mov    %r10,%r12
  400ae7:	4d 89 dc             	mov    %r11,%r12
  400aea:	4d 89 e4             	mov    %r12,%r12
  400aed:	4d 89 ec             	mov    %r13,%r12
  400af0:	4d 89 f4             	mov    %r14,%r12
  400af3:	4d 89 fc             	mov    %r15,%r12

0000000000400af6 <mov_r_r13>:
  400af6:	48 89 c4             	mov    %rax,%rsp
  400af9:	49 89 dd             	mov    %rbx,%r13
  400afc:	49 89 cd             	mov    %rcx,%r13
  400aff:	49 89 d5             	mov    %rdx,%r13
  400b02:	49 89 f5             	mov    %rsi,%r13
  400b05:	49 89 fd             	mov    %rdi,%r13
  400b08:	49 89 ed             	mov    %rbp,%r13
  400b0b:	49 89 e5             	mov    %rsp,%r13
  400b0e:	4d 89 c5             	mov    %r8,%r13
  400b11:	4d 89 cd             	mov    %r9,%r13
  400b14:	4d 89 d5             	mov    %r10,%r13
  400b17:	4d 89 dd             	mov    %r11,%r13
  400b1a:	4d 89 e5             	mov    %r12,%r13
  400b1d:	4d 89 ed             	mov    %r13,%r13
  400b20:	4d 89 f5             	mov    %r14,%r13
  400b23:	4d 89 fd             	mov    %r15,%r13

0000000000400b26 <mov_r_r14>:
  400b26:	48 89 c4             	mov    %rax,%rsp
  400b29:	49 89 de             	mov    %rbx,%r14
  400b2c:	49 89 ce             	mov    %rcx,%r14
  400b2f:	49 89 d6             	mov    %rdx,%r14
  400b32:	49 89 f6             	mov    %rsi,%r14
  400b35:	49 89 fe             	mov    %rdi,%r14
  400b38:	49 89 ee             	mov    %rbp,%r14
  400b3b:	49 89 e6             	mov    %rsp,%r14
  400b3e:	4d 89 c6             	mov    %r8,%r14
  400b41:	4d 89 ce             	mov    %r9,%r14
  400b44:	4d 89 d6             	mov    %r10,%r14
  400b47:	4d 89 de             	mov    %r11,%r14
  400b4a:	4d 89 e6             	mov    %r12,%r14
  400b4d:	4d 89 ee             	mov    %r13,%r14
  400b50:	4d 89 f6             	mov    %r14,%r14
  400b53:	4d 89 fe             	mov    %r15,%r14

0000000000400b56 <mov_r_r15>:
  400b56:	48 89 c4             	mov    %rax,%rsp
  400b59:	49 89 df             	mov    %rbx,%r15
  400b5c:	49 89 cf             	mov    %rcx,%r15
  400b5f:	49 89 d7             	mov    %rdx,%r15
  400b62:	49 89 f7             	mov    %rsi,%r15
  400b65:	49 89 ff             	mov    %rdi,%r15
  400b68:	49 89 ef             	mov    %rbp,%r15
  400b6b:	49 89 e7             	mov    %rsp,%r15
  400b6e:	4d 89 c7             	mov    %r8,%r15
  400b71:	4d 89 cf             	mov    %r9,%r15
  400b74:	4d 89 d7             	mov    %r10,%r15
  400b77:	4d 89 df             	mov    %r11,%r15
  400b7a:	4d 89 e7             	mov    %r12,%r15
  400b7d:	4d 89 ef             	mov    %r13,%r15
  400b80:	4d 89 f7             	mov    %r14,%r15
  400b83:	4d 89 ff             	mov    %r15,%r15

0000000000400b86 <mov_m64_rax>:
  400b86:	48 8b 00             	mov    (%rax),%rax
  400b89:	48 8b 03             	mov    (%rbx),%rax
  400b8c:	48 8b 01             	mov    (%rcx),%rax
  400b8f:	48 8b 02             	mov    (%rdx),%rax
  400b92:	48 8b 06             	mov    (%rsi),%rax
  400b95:	48 8b 07             	mov    (%rdi),%rax
  400b98:	48 8b 45 00          	mov    0x0(%rbp),%rax
  400b9c:	48 8b 04 24          	mov    (%rsp),%rax
  400ba0:	49 8b 00             	mov    (%r8),%rax
  400ba3:	49 8b 01             	mov    (%r9),%rax
  400ba6:	49 8b 02             	mov    (%r10),%rax
  400ba9:	49 8b 03             	mov    (%r11),%rax
  400bac:	49 8b 04 24          	mov    (%r12),%rax
  400bb0:	49 8b 45 00          	mov    0x0(%r13),%rax
  400bb4:	49 8b 06             	mov    (%r14),%rax
  400bb7:	49 8b 07             	mov    (%r15),%rax

0000000000400bba <mov_rax_m64>:
  400bba:	48 89 00             	mov    %rax,(%rax)
  400bbd:	48 89 03             	mov    %rax,(%rbx)
  400bc0:	48 89 01             	mov    %rax,(%rcx)
  400bc3:	48 89 02             	mov    %rax,(%rdx)
  400bc6:	48 89 06             	mov    %rax,(%rsi)
  400bc9:	48 89 07             	mov    %rax,(%rdi)
  400bcc:	48 89 45 00          	mov    %rax,0x0(%rbp)
  400bd0:	48 89 04 24          	mov    %rax,(%rsp)
  400bd4:	49 89 00             	mov    %rax,(%r8)
  400bd7:	49 89 01             	mov    %rax,(%r9)
  400bda:	49 89 02             	mov    %rax,(%r10)
  400bdd:	49 89 03             	mov    %rax,(%r11)
  400be0:	49 89 04 24          	mov    %rax,(%r12)
  400be4:	49 89 45 00          	mov    %rax,0x0(%r13)
  400be8:	49 89 06             	mov    %rax,(%r14)
  400beb:	49 89 07             	mov    %rax,(%r15)

0000000000400bee <mov_m64_rax_disp8>:
  400bee:	48 8b 40 11          	mov    0x11(%rax),%rax
  400bf2:	48 8b 43 11          	mov    0x11(%rbx),%rax
  400bf6:	48 8b 41 11          	mov    0x11(%rcx),%rax
  400bfa:	48 8b 42 11          	mov    0x11(%rdx),%rax
  400bfe:	48 8b 46 11          	mov    0x11(%rsi),%rax
  400c02:	48 8b 47 11          	mov    0x11(%rdi),%rax
  400c06:	48 8b 45 11          	mov    0x11(%rbp),%rax
  400c0a:	48 8b 44 24 11       	mov    0x11(%rsp),%rax
  400c0f:	49 8b 40 11          	mov    0x11(%r8),%rax
  400c13:	49 8b 41 11          	mov    0x11(%r9),%rax
  400c17:	49 8b 42 11          	mov    0x11(%r10),%rax
  400c1b:	49 8b 43 11          	mov    0x11(%r11),%rax
  400c1f:	49 8b 44 24 11       	mov    0x11(%r12),%rax
  400c24:	49 8b 45 11          	mov    0x11(%r13),%rax
  400c28:	49 8b 46 11          	mov    0x11(%r14),%rax
  400c2c:	49 8b 47 11          	mov    0x11(%r15),%rax

0000000000400c30 <mov_rax_m64_disp8>:
  400c30:	48 89 40 11          	mov    %rax,0x11(%rax)
  400c34:	48 89 43 11          	mov    %rax,0x11(%rbx)
  400c38:	48 89 41 11          	mov    %rax,0x11(%rcx)
  400c3c:	48 89 42 11          	mov    %rax,0x11(%rdx)
  400c40:	48 89 46 11          	mov    %rax,0x11(%rsi)
  400c44:	48 89 47 11          	mov    %rax,0x11(%rdi)
  400c48:	48 89 45 11          	mov    %rax,0x11(%rbp)
  400c4c:	48 89 44 24 11       	mov    %rax,0x11(%rsp)
  400c51:	49 89 40 11          	mov    %rax,0x11(%r8)
  400c55:	49 89 41 11          	mov    %rax,0x11(%r9)
  400c59:	49 89 42 11          	mov    %rax,0x11(%r10)
  400c5d:	49 89 43 11          	mov    %rax,0x11(%r11)
  400c61:	49 89 44 24 11       	mov    %rax,0x11(%r12)
  400c66:	49 89 45 11          	mov    %rax,0x11(%r13)
  400c6a:	49 89 46 11          	mov    %rax,0x11(%r14)
  400c6e:	49 89 47 11          	mov    %rax,0x11(%r15)

0000000000400c72 <mov_m64_rax_disp32>:
  400c72:	48 8b 80 44 33 22 11 	mov    0x11223344(%rax),%rax
  400c79:	48 8b 83 44 33 22 11 	mov    0x11223344(%rbx),%rax
  400c80:	48 8b 81 44 33 22 11 	mov    0x11223344(%rcx),%rax
  400c87:	48 8b 82 44 33 22 11 	mov    0x11223344(%rdx),%rax
  400c8e:	48 8b 86 44 33 22 11 	mov    0x11223344(%rsi),%rax
  400c95:	48 8b 87 44 33 22 11 	mov    0x11223344(%rdi),%rax
  400c9c:	48 8b 85 44 33 22 11 	mov    0x11223344(%rbp),%rax
  400ca3:	48 8b 84 24 44 33 22 	mov    0x11223344(%rsp),%rax
  400caa:	11 
  400cab:	49 8b 80 44 33 22 11 	mov    0x11223344(%r8),%rax
  400cb2:	49 8b 81 44 33 22 11 	mov    0x11223344(%r9),%rax
  400cb9:	49 8b 82 44 33 22 11 	mov    0x11223344(%r10),%rax
  400cc0:	49 8b 83 44 33 22 11 	mov    0x11223344(%r11),%rax
  400cc7:	49 8b 84 24 44 33 22 	mov    0x11223344(%r12),%rax
  400cce:	11 
  400ccf:	49 8b 85 44 33 22 11 	mov    0x11223344(%r13),%rax
  400cd6:	49 8b 86 44 33 22 11 	mov    0x11223344(%r14),%rax
  400cdd:	49 8b 87 44 33 22 11 	mov    0x11223344(%r15),%rax

0000000000400ce4 <mov_m64_rax_sib8>:
  400ce4:	48 8b 44 00 11       	mov    0x11(%rax,%rax,1),%rax
  400ce9:	48 8b 44 40 11       	mov    0x11(%rax,%rax,2),%rax
  400cee:	48 8b 44 80 11       	mov    0x11(%rax,%rax,4),%rax
  400cf3:	48 8b 44 c0 11       	mov    0x11(%rax,%rax,8),%rax
  400cf8:	48 8b 44 03 11       	mov    0x11(%rbx,%rax,1),%rax
  400cfd:	48 8b 44 43 11       	mov    0x11(%rbx,%rax,2),%rax
  400d02:	48 8b 44 83 11       	mov    0x11(%rbx,%rax,4),%rax
  400d07:	48 8b 44 c3 11       	mov    0x11(%rbx,%rax,8),%rax
  400d0c:	48 8b 44 18 11       	mov    0x11(%rax,%rbx,1),%rax
  400d11:	48 8b 44 58 11       	mov    0x11(%rax,%rbx,2),%rax
  400d16:	48 8b 44 98 11       	mov    0x11(%rax,%rbx,4),%rax
  400d1b:	48 8b 44 d8 11       	mov    0x11(%rax,%rbx,8),%rax

0000000000400d20 <mov_m64_rax_sib32>:
  400d20:	48 8b 84 00 44 33 22 	mov    0x11223344(%rax,%rax,1),%rax
  400d27:	11 
  400d28:	48 8b 84 40 44 33 22 	mov    0x11223344(%rax,%rax,2),%rax
  400d2f:	11 
  400d30:	48 8b 84 80 44 33 22 	mov    0x11223344(%rax,%rax,4),%rax
  400d37:	11 
  400d38:	48 8b 84 c0 44 33 22 	mov    0x11223344(%rax,%rax,8),%rax
  400d3f:	11 
  400d40:	48 8b 84 03 44 33 22 	mov    0x11223344(%rbx,%rax,1),%rax
  400d47:	11 
  400d48:	48 8b 84 43 44 33 22 	mov    0x11223344(%rbx,%rax,2),%rax
  400d4f:	11 
  400d50:	48 8b 84 83 44 33 22 	mov    0x11223344(%rbx,%rax,4),%rax
  400d57:	11 
  400d58:	48 8b 84 c3 44 33 22 	mov    0x11223344(%rbx,%rax,8),%rax
  400d5f:	11 
  400d60:	48 8b 84 18 44 33 22 	mov    0x11223344(%rax,%rbx,1),%rax
  400d67:	11 
  400d68:	48 8b 84 58 44 33 22 	mov    0x11223344(%rax,%rbx,2),%rax
  400d6f:	11 
  400d70:	48 8b 84 98 44 33 22 	mov    0x11223344(%rax,%rbx,4),%rax
  400d77:	11 
  400d78:	48 8b 84 d8 44 33 22 	mov    0x11223344(%rax,%rbx,8),%rax
  400d7f:	11 

0000000000400d80 <add_r64_rax>:
  400d80:	48 01 c0             	add    %rax,%rax
  400d83:	48 01 d8             	add    %rbx,%rax
  400d86:	48 01 c8             	add    %rcx,%rax
  400d89:	48 01 d0             	add    %rdx,%rax
  400d8c:	48 01 f0             	add    %rsi,%rax
  400d8f:	48 01 f8             	add    %rdi,%rax
  400d92:	48 01 e8             	add    %rbp,%rax
  400d95:	48 01 e0             	add    %rsp,%rax
  400d98:	4c 01 c0             	add    %r8,%rax
  400d9b:	4c 01 c8             	add    %r9,%rax
  400d9e:	4c 01 d0             	add    %r10,%rax
  400da1:	4c 01 d8             	add    %r11,%rax
  400da4:	4c 01 e0             	add    %r12,%rax
  400da7:	4c 01 e8             	add    %r13,%rax
  400daa:	4c 01 f0             	add    %r14,%rax
  400dad:	4c 01 f8             	add    %r15,%rax

0000000000400db0 <add_rax_r64>:
  400db0:	48 01 c0             	add    %rax,%rax
  400db3:	48 01 c3             	add    %rax,%rbx
  400db6:	48 01 c1             	add    %rax,%rcx
  400db9:	48 01 c2             	add    %rax,%rdx
  400dbc:	48 01 c6             	add    %rax,%rsi
  400dbf:	48 01 c7             	add    %rax,%rdi
  400dc2:	48 01 c5             	add    %rax,%rbp
  400dc5:	48 01 c4             	add    %rax,%rsp
  400dc8:	49 01 c0             	add    %rax,%r8
  400dcb:	49 01 c1             	add    %rax,%r9
  400dce:	49 01 c2             	add    %rax,%r10
  400dd1:	49 01 c3             	add    %rax,%r11
  400dd4:	49 01 c4             	add    %rax,%r12
  400dd7:	49 01 c5             	add    %rax,%r13
  400dda:	49 01 c6             	add    %rax,%r14
  400ddd:	49 01 c7             	add    %rax,%r15

0000000000400de0 <add_rax>:
  400de0:	48 03 00             	add    (%rax),%rax
  400de3:	48 03 40 11          	add    0x11(%rax),%rax
  400de7:	48 03 80 44 33 22 11 	add    0x11223344(%rax),%rax
  400dee:	48 03 44 00 11       	add    0x11(%rax,%rax,1),%rax
  400df3:	48 03 84 00 44 33 22 	add    0x11223344(%rax,%rax,1),%rax
  400dfa:	11 

0000000000400dfb <add_m64_rax>:
  400dfb:	48 03 00             	add    (%rax),%rax
  400dfe:	48 03 03             	add    (%rbx),%rax
  400e01:	48 03 01             	add    (%rcx),%rax
  400e04:	48 03 02             	add    (%rdx),%rax
  400e07:	48 03 06             	add    (%rsi),%rax
  400e0a:	48 03 07             	add    (%rdi),%rax
  400e0d:	48 03 45 00          	add    0x0(%rbp),%rax
  400e11:	48 03 04 24          	add    (%rsp),%rax
  400e15:	49 03 00             	add    (%r8),%rax
  400e18:	49 03 01             	add    (%r9),%rax
  400e1b:	49 03 02             	add    (%r10),%rax
  400e1e:	49 03 03             	add    (%r11),%rax
  400e21:	49 03 04 24          	add    (%r12),%rax
  400e25:	49 03 45 00          	add    0x0(%r13),%rax
  400e29:	49 03 06             	add    (%r14),%rax
  400e2c:	49 03 07             	add    (%r15),%rax

0000000000400e2f <inc_r64>:
  400e2f:	48 ff c0             	inc    %rax
  400e32:	48 ff c3             	inc    %rbx
  400e35:	48 ff c1             	inc    %rcx
  400e38:	48 ff c2             	inc    %rdx
  400e3b:	48 ff c6             	inc    %rsi
  400e3e:	48 ff c7             	inc    %rdi
  400e41:	48 ff c5             	inc    %rbp
  400e44:	48 ff c4             	inc    %rsp
  400e47:	49 ff c0             	inc    %r8
  400e4a:	49 ff c1             	inc    %r9
  400e4d:	49 ff c2             	inc    %r10
  400e50:	49 ff c3             	inc    %r11
  400e53:	49 ff c4             	inc    %r12
  400e56:	49 ff c5             	inc    %r13
  400e59:	49 ff c6             	inc    %r14
  400e5c:	49 ff c7             	inc    %r15

0000000000400e5f <inc_r32>:
  400e5f:	ff c0                	inc    %eax
  400e61:	ff c3                	inc    %ebx
  400e63:	ff c1                	inc    %ecx
  400e65:	ff c2                	inc    %edx
  400e67:	ff c6                	inc    %esi
  400e69:	ff c7                	inc    %edi
  400e6b:	ff c5                	inc    %ebp
  400e6d:	ff c4                	inc    %esp
  400e6f:	41 ff c0             	inc    %r8d
  400e72:	41 ff c1             	inc    %r9d
  400e75:	41 ff c2             	inc    %r10d
  400e78:	41 ff c3             	inc    %r11d
  400e7b:	41 ff c4             	inc    %r12d
  400e7e:	41 ff c5             	inc    %r13d
  400e81:	41 ff c6             	inc    %r14d
  400e84:	41 ff c7             	inc    %r15d

0000000000400e87 <inc_r8>:
  400e87:	fe c0                	inc    %al
  400e89:	fe c3                	inc    %bl
  400e8b:	fe c1                	inc    %cl
  400e8d:	fe c2                	inc    %dl
  400e8f:	40 fe c6             	inc    %sil
  400e92:	40 fe c7             	inc    %dil
  400e95:	40 fe c5             	inc    %bpl
  400e98:	40 fe c4             	inc    %spl
  400e9b:	41 fe c0             	inc    %r8b
  400e9e:	41 fe c1             	inc    %r9b
  400ea1:	41 fe c2             	inc    %r10b
  400ea4:	41 fe c3             	inc    %r11b
  400ea7:	41 fe c4             	inc    %r12b
  400eaa:	41 fe c5             	inc    %r13b
  400ead:	41 fe c6             	inc    %r14b
  400eb0:	41 fe c7             	inc    %r15b

0000000000400eb3 <dec_r64>:
  400eb3:	48 ff c8             	dec    %rax
  400eb6:	48 ff cb             	dec    %rbx
  400eb9:	48 ff c9             	dec    %rcx
  400ebc:	48 ff ca             	dec    %rdx
  400ebf:	48 ff ce             	dec    %rsi
  400ec2:	48 ff cf             	dec    %rdi
  400ec5:	48 ff cd             	dec    %rbp
  400ec8:	48 ff cc             	dec    %rsp
  400ecb:	49 ff c8             	dec    %r8
  400ece:	49 ff c9             	dec    %r9
  400ed1:	49 ff ca             	dec    %r10
  400ed4:	49 ff cb             	dec    %r11
  400ed7:	49 ff cc             	dec    %r12
  400eda:	49 ff cd             	dec    %r13
  400edd:	49 ff ce             	dec    %r14
  400ee0:	49 ff cf             	dec    %r15

0000000000400ee3 <dec_r32>:
  400ee3:	ff c8                	dec    %eax
  400ee5:	ff cb                	dec    %ebx
  400ee7:	ff c9                	dec    %ecx
  400ee9:	ff ca                	dec    %edx
  400eeb:	ff ce                	dec    %esi
  400eed:	ff cf                	dec    %edi
  400eef:	ff cd                	dec    %ebp
  400ef1:	ff cc                	dec    %esp
  400ef3:	41 ff c8             	dec    %r8d
  400ef6:	41 ff c9             	dec    %r9d
  400ef9:	41 ff ca             	dec    %r10d
  400efc:	41 ff cb             	dec    %r11d
  400eff:	41 ff cc             	dec    %r12d
  400f02:	41 ff cd             	dec    %r13d
  400f05:	41 ff ce             	dec    %r14d
  400f08:	41 ff cf             	dec    %r15d

0000000000400f0b <dec_r8>:
  400f0b:	fe c8                	dec    %al
  400f0d:	fe cb                	dec    %bl
  400f0f:	fe c9                	dec    %cl
  400f11:	fe ca                	dec    %dl
  400f13:	40 fe ce             	dec    %sil
  400f16:	40 fe cf             	dec    %dil
  400f19:	40 fe cd             	dec    %bpl
  400f1c:	40 fe cc             	dec    %spl
  400f1f:	41 fe c8             	dec    %r8b
  400f22:	41 fe c9             	dec    %r9b
  400f25:	41 fe ca             	dec    %r10b
  400f28:	41 fe cb             	dec    %r11b
  400f2b:	41 fe cc             	dec    %r12b
  400f2e:	41 fe cd             	dec    %r13b
  400f31:	41 fe ce             	dec    %r14b
  400f34:	41 fe cf             	dec    %r15b

0000000000400f37 <jmp>:
  400f37:	e9 d5 f0 bf ff       	jmpq   11 <_init-0x40041f>
  400f3c:	e9 e1 01 c0 ff       	jmpq   1122 <_init-0x3ff30e>
  400f41:	e9 ed 12 d1 ff       	jmpq   112233 <_init-0x2ee1fd>
  400f46:	e9 f9 23 e2 10       	jmpq   11223344 <_end+0x10c2200c>
  400f4b:	0f 1f 44 00 00       	nopl   0x0(%rax,%rax,1)

0000000000400f50 <__libc_csu_init>:
  400f50:	41 57                	push   %r15
  400f52:	41 89 ff             	mov    %edi,%r15d
  400f55:	41 56                	push   %r14
  400f57:	49 89 f6             	mov    %rsi,%r14
  400f5a:	41 55                	push   %r13
  400f5c:	49 89 d5             	mov    %rdx,%r13
  400f5f:	41 54                	push   %r12
  400f61:	4c 8d 25 70 01 20 00 	lea    0x200170(%rip),%r12        # 6010d8 <__frame_dummy_init_array_entry>
  400f68:	55                   	push   %rbp
  400f69:	48 8d 2d 70 01 20 00 	lea    0x200170(%rip),%rbp        # 6010e0 <__init_array_end>
  400f70:	53                   	push   %rbx
  400f71:	4c 29 e5             	sub    %r12,%rbp
  400f74:	31 db                	xor    %ebx,%ebx
  400f76:	48 c1 fd 03          	sar    $0x3,%rbp
  400f7a:	48 83 ec 08          	sub    $0x8,%rsp
  400f7e:	e8 ad f4 ff ff       	callq  400430 <_init>
  400f83:	48 85 ed             	test   %rbp,%rbp
  400f86:	74 1e                	je     400fa6 <__libc_csu_init+0x56>
  400f88:	0f 1f 84 00 00 00 00 	nopl   0x0(%rax,%rax,1)
  400f8f:	00 
  400f90:	4c 89 ea             	mov    %r13,%rdx
  400f93:	4c 89 f6             	mov    %r14,%rsi
  400f96:	44 89 ff             	mov    %r15d,%edi
  400f99:	41 ff 14 dc          	callq  *(%r12,%rbx,8)
  400f9d:	48 83 c3 01          	add    $0x1,%rbx
  400fa1:	48 39 eb             	cmp    %rbp,%rbx
  400fa4:	75 ea                	jne    400f90 <__libc_csu_init+0x40>
  400fa6:	48 83 c4 08          	add    $0x8,%rsp
  400faa:	5b                   	pop    %rbx
  400fab:	5d                   	pop    %rbp
  400fac:	41 5c                	pop    %r12
  400fae:	41 5d                	pop    %r13
  400fb0:	41 5e                	pop    %r14
  400fb2:	41 5f                	pop    %r15
  400fb4:	c3                   	retq   
  400fb5:	66 66 2e 0f 1f 84 00 	data16 nopw %cs:0x0(%rax,%rax,1)
  400fbc:	00 00 00 00 

0000000000400fc0 <__libc_csu_fini>:
  400fc0:	f3 c3                	repz retq 

Disassembly of section .fini:

0000000000400fc4 <_fini>:
  400fc4:	48 83 ec 08          	sub    $0x8,%rsp
  400fc8:	48 83 c4 08          	add    $0x8,%rsp
  400fcc:	c3                   	retq   
