
notes/asm:     file format elf64-x86-64


Disassembly of section .init:

0000000000400430 <_init>:
  400430:	48 83 ec 08          	sub    $0x8,%rsp
  400434:	48 8b 05 a5 0e 20 00 	mov    0x200ea5(%rip),%rax        # 6012e0 <_DYNAMIC+0x200>
  40043b:	48 85 c0             	test   %rax,%rax
  40043e:	74 05                	je     400445 <_init+0x15>
  400440:	e8 1b 00 00 00       	callq  400460 <__gmon_start__@plt>
  400445:	48 83 c4 08          	add    $0x8,%rsp
  400449:	c3                   	retq   

Disassembly of section .plt:

0000000000400450 <__gmon_start__@plt-0x10>:
  400450:	ff 35 9a 0e 20 00    	pushq  0x200e9a(%rip)        # 6012f0 <_GLOBAL_OFFSET_TABLE_+0x8>
  400456:	ff 25 9c 0e 20 00    	jmpq   *0x200e9c(%rip)        # 6012f8 <_GLOBAL_OFFSET_TABLE_+0x10>
  40045c:	0f 1f 40 00          	nopl   0x0(%rax)

0000000000400460 <__gmon_start__@plt>:
  400460:	ff 25 9a 0e 20 00    	jmpq   *0x200e9a(%rip)        # 601300 <_GLOBAL_OFFSET_TABLE_+0x18>
  400466:	68 00 00 00 00       	pushq  $0x0
  40046b:	e9 e0 ff ff ff       	jmpq   400450 <_init+0x20>

0000000000400470 <__libc_start_main@plt>:
  400470:	ff 25 92 0e 20 00    	jmpq   *0x200e92(%rip)        # 601308 <_GLOBAL_OFFSET_TABLE_+0x20>
  400476:	68 01 00 00 00       	pushq  $0x1
  40047b:	e9 d0 ff ff ff       	jmpq   400450 <_init+0x20>

Disassembly of section .text:

0000000000400480 <_start>:
  400480:	31 ed                	xor    %ebp,%ebp
  400482:	49 89 d1             	mov    %rdx,%r9
  400485:	5e                   	pop    %rsi
  400486:	48 89 e2             	mov    %rsp,%rdx
  400489:	48 83 e4 f0          	and    $0xfffffffffffffff0,%rsp
  40048d:	50                   	push   %rax
  40048e:	54                   	push   %rsp
  40048f:	49 c7 c0 b0 0f 40 00 	mov    $0x400fb0,%r8
  400496:	48 c7 c1 40 0f 40 00 	mov    $0x400f40,%rcx
  40049d:	48 c7 c7 76 05 40 00 	mov    $0x400576,%rdi
  4004a4:	e8 c7 ff ff ff       	callq  400470 <__libc_start_main@plt>
  4004a9:	f4                   	hlt    
  4004aa:	66 0f 1f 44 00 00    	nopw   0x0(%rax,%rax,1)

00000000004004b0 <deregister_tm_clones>:
  4004b0:	b8 27 13 60 00       	mov    $0x601327,%eax
  4004b5:	55                   	push   %rbp
  4004b6:	48 2d 20 13 60 00    	sub    $0x601320,%rax
  4004bc:	48 83 f8 0e          	cmp    $0xe,%rax
  4004c0:	48 89 e5             	mov    %rsp,%rbp
  4004c3:	76 1b                	jbe    4004e0 <deregister_tm_clones+0x30>
  4004c5:	b8 00 00 00 00       	mov    $0x0,%eax
  4004ca:	48 85 c0             	test   %rax,%rax
  4004cd:	74 11                	je     4004e0 <deregister_tm_clones+0x30>
  4004cf:	5d                   	pop    %rbp
  4004d0:	bf 20 13 60 00       	mov    $0x601320,%edi
  4004d5:	ff e0                	jmpq   *%rax
  4004d7:	66 0f 1f 84 00 00 00 	nopw   0x0(%rax,%rax,1)
  4004de:	00 00 
  4004e0:	5d                   	pop    %rbp
  4004e1:	c3                   	retq   
  4004e2:	66 66 66 66 66 2e 0f 	data16 data16 data16 data16 nopw %cs:0x0(%rax,%rax,1)
  4004e9:	1f 84 00 00 00 00 00 

00000000004004f0 <register_tm_clones>:
  4004f0:	be 20 13 60 00       	mov    $0x601320,%esi
  4004f5:	55                   	push   %rbp
  4004f6:	48 81 ee 20 13 60 00 	sub    $0x601320,%rsi
  4004fd:	48 c1 fe 03          	sar    $0x3,%rsi
  400501:	48 89 e5             	mov    %rsp,%rbp
  400504:	48 89 f0             	mov    %rsi,%rax
  400507:	48 c1 e8 3f          	shr    $0x3f,%rax
  40050b:	48 01 c6             	add    %rax,%rsi
  40050e:	48 d1 fe             	sar    %rsi
  400511:	74 15                	je     400528 <register_tm_clones+0x38>
  400513:	b8 00 00 00 00       	mov    $0x0,%eax
  400518:	48 85 c0             	test   %rax,%rax
  40051b:	74 0b                	je     400528 <register_tm_clones+0x38>
  40051d:	5d                   	pop    %rbp
  40051e:	bf 20 13 60 00       	mov    $0x601320,%edi
  400523:	ff e0                	jmpq   *%rax
  400525:	0f 1f 00             	nopl   (%rax)
  400528:	5d                   	pop    %rbp
  400529:	c3                   	retq   
  40052a:	66 0f 1f 44 00 00    	nopw   0x0(%rax,%rax,1)

0000000000400530 <__do_global_dtors_aux>:
  400530:	80 3d e9 0d 20 00 00 	cmpb   $0x0,0x200de9(%rip)        # 601320 <__TMC_END__>
  400537:	75 11                	jne    40054a <__do_global_dtors_aux+0x1a>
  400539:	55                   	push   %rbp
  40053a:	48 89 e5             	mov    %rsp,%rbp
  40053d:	e8 6e ff ff ff       	callq  4004b0 <deregister_tm_clones>
  400542:	5d                   	pop    %rbp
  400543:	c6 05 d6 0d 20 00 01 	movb   $0x1,0x200dd6(%rip)        # 601320 <__TMC_END__>
  40054a:	f3 c3                	repz retq 
  40054c:	0f 1f 40 00          	nopl   0x0(%rax)

0000000000400550 <frame_dummy>:
  400550:	bf d8 10 60 00       	mov    $0x6010d8,%edi
  400555:	48 83 3f 00          	cmpq   $0x0,(%rdi)
  400559:	75 05                	jne    400560 <frame_dummy+0x10>
  40055b:	eb 93                	jmp    4004f0 <register_tm_clones>
  40055d:	0f 1f 00             	nopl   (%rax)
  400560:	b8 00 00 00 00       	mov    $0x0,%eax
  400565:	48 85 c0             	test   %rax,%rax
  400568:	74 f1                	je     40055b <frame_dummy+0xb>
  40056a:	55                   	push   %rbp
  40056b:	48 89 e5             	mov    %rsp,%rbp
  40056e:	ff d0                	callq  *%rax
  400570:	5d                   	pop    %rbp
  400571:	e9 7a ff ff ff       	jmpq   4004f0 <register_tm_clones>

0000000000400576 <main>:
  400576:	0f 05                	syscall 

0000000000400578 <system>:
  400578:	0f 05                	syscall 
  40057a:	0f 34                	sysenter 
  40057c:	0f 35                	sysexit 
  40057e:	cd 80                	int    $0x80

0000000000400580 <inc>:
  400580:	48 ff c3             	inc    %rbx
  400583:	48 ff 00             	incq   (%rax)
  400586:	48 ff 03             	incq   (%rbx)
  400589:	48 ff 04 0b          	incq   (%rbx,%rcx,1)
  40058d:	48 ff 04 cb          	incq   (%rbx,%rcx,8)
  400591:	48 ff 04 cb          	incq   (%rbx,%rcx,8)
  400595:	48 ff 44 d8 11       	incq   0x11(%rax,%rbx,8)
  40059a:	48 ff 84 d8 bc cc dd 	incq   -0x11223344(%rax,%rbx,8)
  4005a1:	ee 
  4005a2:	4a ff 84 fb dd fe ff 	incq   -0x123(%rbx,%r15,8)
  4005a9:	ff 
  4005aa:	48 ff 44 ed 00       	incq   0x0(%rbp,%rbp,8)
  4005af:	48 ff 45 00          	incq   0x0(%rbp)
  4005b3:	48 ff 04 24          	incq   (%rsp)
  4005b7:	49 ff 04 24          	incq   (%r12)
  4005bb:	49 ff 45 00          	incq   0x0(%r13)
  4005bf:	49 ff c7             	inc    %r15
  4005c2:	48 ff 04 25 11 00 00 	incq   0x11
  4005c9:	00 
  4005ca:	48 ff 04 25 44 33 22 	incq   0x11223344
  4005d1:	11 

00000000004005d2 <dec>:
  4005d2:	48 ff c8             	dec    %rax

00000000004005d5 <mov>:
  4005d5:	48 89 c0             	mov    %rax,%rax
  4005d8:	48 89 c3             	mov    %rax,%rbx
  4005db:	48 89 00             	mov    %rax,(%rax)
  4005de:	48 89 19             	mov    %rbx,(%rcx)
  4005e1:	48 8b 13             	mov    (%rbx),%rdx
  4005e4:	4d 89 c1             	mov    %r8,%r9
  4005e7:	4d 89 13             	mov    %r10,(%r11)
  4005ea:	4d 8b 2c 24          	mov    (%r12),%r13
  4005ee:	48 8b 4b 11          	mov    0x11(%rbx),%rcx
  4005f2:	48 8b 34 11          	mov    (%rcx,%rdx,1),%rsi
  4005f6:	48 8b 8c 98 34 12 00 	mov    0x1234(%rax,%rbx,4),%rcx
  4005fd:	00 
  4005fe:	48 8b 2c 25 01 00 00 	mov    0x1,%rbp
  400605:	00 
  400606:	48 8b 24 25 01 00 00 	mov    0x1,%rsp
  40060d:	00 
  40060e:	48 89 1c 24          	mov    %rbx,(%rsp)
  400612:	48 89 dc             	mov    %rbx,%rsp
  400615:	48 89 5d 00          	mov    %rbx,0x0(%rbp)
  400619:	48 89 1c 6c          	mov    %rbx,(%rsp,%rbp,2)
  40061d:	48 8b 5c c5 00       	mov    0x0(%rbp,%rax,8),%rbx
  400622:	48 8b 2c 55 00 00 00 	mov    0x0(,%rdx,2),%rbp
  400629:	00 
  40062a:	48 89 24 ed dd fe ff 	mov    %rsp,-0x123(,%rbp,8)
  400631:	ff 
  400632:	48 c7 c0 01 00 00 00 	mov    $0x1,%rax
  400639:	48 c7 c5 cd cc ff ff 	mov    $0xffffffffffffcccd,%rbp
  400640:	48 c7 c4 cd cc cc ff 	mov    $0xffffffffffcccccd,%rsp

0000000000400647 <test2>:
  400647:	41 ff ca             	dec    %r10d
  40064a:	89 c3                	mov    %eax,%ebx
  40064c:	48 89 c0             	mov    %rax,%rax
  40064f:	48 89 00             	mov    %rax,(%rax)
  400652:	48 8b 03             	mov    (%rbx),%rax
  400655:	4d 89 e4             	mov    %r12,%r12
  400658:	4d 8b 24 24          	mov    (%r12),%r12
  40065c:	4d 89 24 24          	mov    %r12,(%r12)

0000000000400660 <push>:
  400660:	50                   	push   %rax
  400661:	53                   	push   %rbx
  400662:	51                   	push   %rcx
  400663:	52                   	push   %rdx
  400664:	54                   	push   %rsp
  400665:	55                   	push   %rbp
  400666:	57                   	push   %rdi
  400667:	56                   	push   %rsi
  400668:	41 50                	push   %r8
  40066a:	41 51                	push   %r9
  40066c:	58                   	pop    %rax
  40066d:	5b                   	pop    %rbx
  40066e:	41 58                	pop    %r8
  400670:	41 59                	pop    %r9
  400672:	41 5a                	pop    %r10

0000000000400674 <mov_r_r>:
  400674:	48 89 d8             	mov    %rbx,%rax
  400677:	89 c3                	mov    %eax,%ebx

0000000000400679 <mov_imm_r>:
  400679:	48 89 c0             	mov    %rax,%rax
  40067c:	48 c7 c0 11 00 00 00 	mov    $0x11,%rax
  400683:	b8 44 33 22 11       	mov    $0x11223344,%eax
  400688:	bb 44 33 22 11       	mov    $0x11223344,%ebx
  40068d:	bc 44 33 22 11       	mov    $0x11223344,%esp
  400692:	41 bc 44 33 22 11    	mov    $0x11223344,%r12d
  400698:	48 c7 c0 44 33 22 11 	mov    $0x11223344,%rax
  40069f:	48 b8 88 77 66 55 44 	movabs $0x1122334455667788,%rax
  4006a6:	33 22 11 
  4006a9:	49 bf 88 77 66 55 44 	movabs $0x1122334455667788,%r15
  4006b0:	33 22 11 

00000000004006b3 <mov_m_r>:
  4006b3:	48 8b 03             	mov    (%rbx),%rax
  4006b6:	49 8b 01             	mov    (%r9),%rax
  4006b9:	4c 8b 03             	mov    (%rbx),%r8
  4006bc:	4d 8b 01             	mov    (%r9),%r8
  4006bf:	4d 8b 41 11          	mov    0x11(%r9),%r8
  4006c3:	4b 8b 5c e3 11       	mov    0x11(%r11,%r12,8),%rbx

00000000004006c8 <mov_r_m>:
  4006c8:	48 89 00             	mov    %rax,(%rax)
  4006cb:	48 89 18             	mov    %rbx,(%rax)
  4006ce:	48 89 08             	mov    %rcx,(%rax)
  4006d1:	48 89 10             	mov    %rdx,(%rax)
  4006d4:	48 89 30             	mov    %rsi,(%rax)
  4006d7:	48 89 38             	mov    %rdi,(%rax)
  4006da:	48 89 28             	mov    %rbp,(%rax)
  4006dd:	48 89 20             	mov    %rsp,(%rax)
  4006e0:	4c 89 00             	mov    %r8,(%rax)
  4006e3:	4c 89 08             	mov    %r9,(%rax)
  4006e6:	49 89 00             	mov    %rax,(%r8)
  4006e9:	49 89 18             	mov    %rbx,(%r8)
  4006ec:	49 89 08             	mov    %rcx,(%r8)
  4006ef:	49 89 10             	mov    %rdx,(%r8)
  4006f2:	49 89 30             	mov    %rsi,(%r8)
  4006f5:	49 89 38             	mov    %rdi,(%r8)
  4006f8:	49 89 28             	mov    %rbp,(%r8)
  4006fb:	49 89 20             	mov    %rsp,(%r8)
  4006fe:	4d 89 00             	mov    %r8,(%r8)
  400701:	4d 89 08             	mov    %r9,(%r8)
  400704:	4d 89 10             	mov    %r10,(%r8)
  400707:	4d 89 18             	mov    %r11,(%r8)
  40070a:	4d 89 20             	mov    %r12,(%r8)
  40070d:	4d 89 28             	mov    %r13,(%r8)
  400710:	4d 89 30             	mov    %r14,(%r8)
  400713:	4d 89 38             	mov    %r15,(%r8)
  400716:	49 89 1b             	mov    %rbx,(%r11)
  400719:	49 89 1c 24          	mov    %rbx,(%r12)
  40071d:	49 89 5d 00          	mov    %rbx,0x0(%r13)
  400721:	49 89 1e             	mov    %rbx,(%r14)
  400724:	49 89 1f             	mov    %rbx,(%r15)

0000000000400727 <test>:
  400727:	48 89 c0             	mov    %rax,%rax
  40072a:	48 89 d8             	mov    %rbx,%rax
  40072d:	48 8b 00             	mov    (%rax),%rax
  400730:	48 89 00             	mov    %rax,(%rax)
  400733:	48 c7 00 0b 00 00 00 	movq   $0xb,(%rax)
  40073a:	48 8b 40 11          	mov    0x11(%rax),%rax
  40073e:	48 89 40 11          	mov    %rax,0x11(%rax)
  400742:	48 8b 04 0b          	mov    (%rbx,%rcx,1),%rax
  400746:	48 89 04 0b          	mov    %rax,(%rbx,%rcx,1)
  40074a:	48 8b 04 4b          	mov    (%rbx,%rcx,2),%rax
  40074e:	48 89 04 4b          	mov    %rax,(%rbx,%rcx,2)
  400752:	48 8b 44 0b 11       	mov    0x11(%rbx,%rcx,1),%rax
  400757:	48 89 44 0b 11       	mov    %rax,0x11(%rbx,%rcx,1)
  40075c:	48 8b 44 8b 11       	mov    0x11(%rbx,%rcx,4),%rax
  400761:	48 89 44 8b 11       	mov    %rax,0x11(%rbx,%rcx,4)

0000000000400766 <mov_i32_r>:
  400766:	48 c7 c0 44 33 22 11 	mov    $0x11223344,%rax
  40076d:	48 c7 c3 44 33 22 11 	mov    $0x11223344,%rbx
  400774:	48 c7 c1 44 33 22 11 	mov    $0x11223344,%rcx
  40077b:	48 c7 c2 44 33 22 11 	mov    $0x11223344,%rdx
  400782:	48 c7 c6 44 33 22 11 	mov    $0x11223344,%rsi
  400789:	48 c7 c7 44 33 22 11 	mov    $0x11223344,%rdi
  400790:	48 c7 c5 44 33 22 11 	mov    $0x11223344,%rbp
  400797:	48 c7 c4 44 33 22 11 	mov    $0x11223344,%rsp
  40079e:	49 c7 c0 44 33 22 11 	mov    $0x11223344,%r8
  4007a5:	49 c7 c1 44 33 22 11 	mov    $0x11223344,%r9
  4007ac:	49 c7 c2 44 33 22 11 	mov    $0x11223344,%r10
  4007b3:	49 c7 c3 44 33 22 11 	mov    $0x11223344,%r11
  4007ba:	49 c7 c4 44 33 22 11 	mov    $0x11223344,%r12
  4007c1:	49 c7 c5 44 33 22 11 	mov    $0x11223344,%r13
  4007c8:	49 c7 c6 44 33 22 11 	mov    $0x11223344,%r14
  4007cf:	49 c7 c7 44 33 22 11 	mov    $0x11223344,%r15

00000000004007d6 <mov_i64_r>:
  4007d6:	48 b8 88 77 66 55 44 	movabs $0x1122334455667788,%rax
  4007dd:	33 22 11 
  4007e0:	48 bb 88 77 66 55 44 	movabs $0x1122334455667788,%rbx
  4007e7:	33 22 11 
  4007ea:	48 b9 88 77 66 55 44 	movabs $0x1122334455667788,%rcx
  4007f1:	33 22 11 
  4007f4:	48 ba 88 77 66 55 44 	movabs $0x1122334455667788,%rdx
  4007fb:	33 22 11 
  4007fe:	48 be 88 77 66 55 44 	movabs $0x1122334455667788,%rsi
  400805:	33 22 11 
  400808:	48 bf 88 77 66 55 44 	movabs $0x1122334455667788,%rdi
  40080f:	33 22 11 
  400812:	48 bd 88 77 66 55 44 	movabs $0x1122334455667788,%rbp
  400819:	33 22 11 
  40081c:	48 bc 88 77 66 55 44 	movabs $0x1122334455667788,%rsp
  400823:	33 22 11 
  400826:	49 b8 88 77 66 55 44 	movabs $0x1122334455667788,%r8
  40082d:	33 22 11 
  400830:	49 b9 88 77 66 55 44 	movabs $0x1122334455667788,%r9
  400837:	33 22 11 
  40083a:	49 ba 88 77 66 55 44 	movabs $0x1122334455667788,%r10
  400841:	33 22 11 
  400844:	49 bb 88 77 66 55 44 	movabs $0x1122334455667788,%r11
  40084b:	33 22 11 
  40084e:	49 bc 88 77 66 55 44 	movabs $0x1122334455667788,%r12
  400855:	33 22 11 
  400858:	49 bd 88 77 66 55 44 	movabs $0x1122334455667788,%r13
  40085f:	33 22 11 
  400862:	49 be 88 77 66 55 44 	movabs $0x1122334455667788,%r14
  400869:	33 22 11 
  40086c:	49 bf 88 77 66 55 44 	movabs $0x1122334455667788,%r15
  400873:	33 22 11 

0000000000400876 <mov_r_rax>:
  400876:	48 89 c0             	mov    %rax,%rax
  400879:	48 89 d8             	mov    %rbx,%rax
  40087c:	48 89 c8             	mov    %rcx,%rax
  40087f:	48 89 d0             	mov    %rdx,%rax
  400882:	48 89 f0             	mov    %rsi,%rax
  400885:	48 89 f8             	mov    %rdi,%rax
  400888:	48 89 e8             	mov    %rbp,%rax
  40088b:	48 89 e0             	mov    %rsp,%rax
  40088e:	4c 89 c0             	mov    %r8,%rax
  400891:	4c 89 c8             	mov    %r9,%rax
  400894:	4c 89 d0             	mov    %r10,%rax
  400897:	4c 89 d8             	mov    %r11,%rax
  40089a:	4c 89 e0             	mov    %r12,%rax
  40089d:	4c 89 e8             	mov    %r13,%rax
  4008a0:	4c 89 f0             	mov    %r14,%rax
  4008a3:	4c 89 f8             	mov    %r15,%rax

00000000004008a6 <mov_r_rbx>:
  4008a6:	48 89 c3             	mov    %rax,%rbx
  4008a9:	48 89 db             	mov    %rbx,%rbx
  4008ac:	48 89 cb             	mov    %rcx,%rbx
  4008af:	48 89 d3             	mov    %rdx,%rbx
  4008b2:	48 89 f3             	mov    %rsi,%rbx
  4008b5:	48 89 fb             	mov    %rdi,%rbx
  4008b8:	48 89 eb             	mov    %rbp,%rbx
  4008bb:	48 89 e3             	mov    %rsp,%rbx
  4008be:	4c 89 c3             	mov    %r8,%rbx
  4008c1:	4c 89 cb             	mov    %r9,%rbx
  4008c4:	4c 89 d3             	mov    %r10,%rbx
  4008c7:	4c 89 db             	mov    %r11,%rbx
  4008ca:	4c 89 e3             	mov    %r12,%rbx
  4008cd:	4c 89 eb             	mov    %r13,%rbx
  4008d0:	4c 89 f3             	mov    %r14,%rbx
  4008d3:	4c 89 fb             	mov    %r15,%rbx

00000000004008d6 <mov_r_rcx>:
  4008d6:	48 89 c1             	mov    %rax,%rcx
  4008d9:	48 89 d9             	mov    %rbx,%rcx
  4008dc:	48 89 c9             	mov    %rcx,%rcx
  4008df:	48 89 d1             	mov    %rdx,%rcx
  4008e2:	48 89 f1             	mov    %rsi,%rcx
  4008e5:	48 89 f9             	mov    %rdi,%rcx
  4008e8:	48 89 e9             	mov    %rbp,%rcx
  4008eb:	48 89 e1             	mov    %rsp,%rcx
  4008ee:	4c 89 c1             	mov    %r8,%rcx
  4008f1:	4c 89 c9             	mov    %r9,%rcx
  4008f4:	4c 89 d1             	mov    %r10,%rcx
  4008f7:	4c 89 d9             	mov    %r11,%rcx
  4008fa:	4c 89 e1             	mov    %r12,%rcx
  4008fd:	4c 89 e9             	mov    %r13,%rcx
  400900:	4c 89 f1             	mov    %r14,%rcx
  400903:	4c 89 f9             	mov    %r15,%rcx

0000000000400906 <mov_r_rdx>:
  400906:	48 89 c2             	mov    %rax,%rdx
  400909:	48 89 da             	mov    %rbx,%rdx
  40090c:	48 89 ca             	mov    %rcx,%rdx
  40090f:	48 89 d2             	mov    %rdx,%rdx
  400912:	48 89 f2             	mov    %rsi,%rdx
  400915:	48 89 fa             	mov    %rdi,%rdx
  400918:	48 89 ea             	mov    %rbp,%rdx
  40091b:	48 89 e2             	mov    %rsp,%rdx
  40091e:	4c 89 c2             	mov    %r8,%rdx
  400921:	4c 89 ca             	mov    %r9,%rdx
  400924:	4c 89 d2             	mov    %r10,%rdx
  400927:	4c 89 da             	mov    %r11,%rdx
  40092a:	4c 89 e2             	mov    %r12,%rdx
  40092d:	4c 89 ea             	mov    %r13,%rdx
  400930:	4c 89 f2             	mov    %r14,%rdx
  400933:	4c 89 fa             	mov    %r15,%rdx

0000000000400936 <mov_r_rsi>:
  400936:	48 89 c6             	mov    %rax,%rsi
  400939:	48 89 de             	mov    %rbx,%rsi
  40093c:	48 89 ce             	mov    %rcx,%rsi
  40093f:	48 89 d6             	mov    %rdx,%rsi
  400942:	48 89 f6             	mov    %rsi,%rsi
  400945:	48 89 fe             	mov    %rdi,%rsi
  400948:	48 89 ee             	mov    %rbp,%rsi
  40094b:	48 89 e6             	mov    %rsp,%rsi
  40094e:	4c 89 c6             	mov    %r8,%rsi
  400951:	4c 89 ce             	mov    %r9,%rsi
  400954:	4c 89 d6             	mov    %r10,%rsi
  400957:	4c 89 de             	mov    %r11,%rsi
  40095a:	4c 89 e6             	mov    %r12,%rsi
  40095d:	4c 89 ee             	mov    %r13,%rsi
  400960:	4c 89 f6             	mov    %r14,%rsi
  400963:	4c 89 fe             	mov    %r15,%rsi

0000000000400966 <mov_r_rdi>:
  400966:	48 89 c7             	mov    %rax,%rdi
  400969:	48 89 df             	mov    %rbx,%rdi
  40096c:	48 89 cf             	mov    %rcx,%rdi
  40096f:	48 89 d7             	mov    %rdx,%rdi
  400972:	48 89 f7             	mov    %rsi,%rdi
  400975:	48 89 ff             	mov    %rdi,%rdi
  400978:	48 89 ef             	mov    %rbp,%rdi
  40097b:	48 89 e7             	mov    %rsp,%rdi
  40097e:	4c 89 c7             	mov    %r8,%rdi
  400981:	4c 89 cf             	mov    %r9,%rdi
  400984:	4c 89 d7             	mov    %r10,%rdi
  400987:	4c 89 df             	mov    %r11,%rdi
  40098a:	4c 89 e7             	mov    %r12,%rdi
  40098d:	4c 89 ef             	mov    %r13,%rdi
  400990:	4c 89 f7             	mov    %r14,%rdi
  400993:	4c 89 ff             	mov    %r15,%rdi

0000000000400996 <mov_r_rbp>:
  400996:	48 89 c5             	mov    %rax,%rbp
  400999:	48 89 dd             	mov    %rbx,%rbp
  40099c:	48 89 cd             	mov    %rcx,%rbp
  40099f:	48 89 d5             	mov    %rdx,%rbp
  4009a2:	48 89 f5             	mov    %rsi,%rbp
  4009a5:	48 89 fd             	mov    %rdi,%rbp
  4009a8:	48 89 ed             	mov    %rbp,%rbp
  4009ab:	48 89 e5             	mov    %rsp,%rbp
  4009ae:	4c 89 c5             	mov    %r8,%rbp
  4009b1:	4c 89 cd             	mov    %r9,%rbp
  4009b4:	4c 89 d5             	mov    %r10,%rbp
  4009b7:	4c 89 dd             	mov    %r11,%rbp
  4009ba:	4c 89 e5             	mov    %r12,%rbp
  4009bd:	4c 89 ed             	mov    %r13,%rbp
  4009c0:	4c 89 f5             	mov    %r14,%rbp
  4009c3:	4c 89 fd             	mov    %r15,%rbp

00000000004009c6 <mov_r_rsp>:
  4009c6:	48 89 c4             	mov    %rax,%rsp
  4009c9:	48 89 dc             	mov    %rbx,%rsp
  4009cc:	48 89 cc             	mov    %rcx,%rsp
  4009cf:	48 89 d4             	mov    %rdx,%rsp
  4009d2:	48 89 f4             	mov    %rsi,%rsp
  4009d5:	48 89 fc             	mov    %rdi,%rsp
  4009d8:	48 89 ec             	mov    %rbp,%rsp
  4009db:	48 89 e4             	mov    %rsp,%rsp
  4009de:	4c 89 c4             	mov    %r8,%rsp
  4009e1:	4c 89 cc             	mov    %r9,%rsp
  4009e4:	4c 89 d4             	mov    %r10,%rsp
  4009e7:	4c 89 dc             	mov    %r11,%rsp
  4009ea:	4c 89 e4             	mov    %r12,%rsp
  4009ed:	4c 89 ec             	mov    %r13,%rsp
  4009f0:	4c 89 f4             	mov    %r14,%rsp
  4009f3:	4c 89 fc             	mov    %r15,%rsp

00000000004009f6 <mov_r_r8>:
  4009f6:	48 89 c4             	mov    %rax,%rsp
  4009f9:	49 89 d8             	mov    %rbx,%r8
  4009fc:	49 89 c8             	mov    %rcx,%r8
  4009ff:	49 89 d0             	mov    %rdx,%r8
  400a02:	49 89 f0             	mov    %rsi,%r8
  400a05:	49 89 f8             	mov    %rdi,%r8
  400a08:	49 89 e8             	mov    %rbp,%r8
  400a0b:	49 89 e0             	mov    %rsp,%r8
  400a0e:	4d 89 c0             	mov    %r8,%r8
  400a11:	4d 89 c8             	mov    %r9,%r8
  400a14:	4d 89 d0             	mov    %r10,%r8
  400a17:	4d 89 d8             	mov    %r11,%r8
  400a1a:	4d 89 e0             	mov    %r12,%r8
  400a1d:	4d 89 e8             	mov    %r13,%r8
  400a20:	4d 89 f0             	mov    %r14,%r8
  400a23:	4d 89 f8             	mov    %r15,%r8

0000000000400a26 <mov_r_r9>:
  400a26:	48 89 c4             	mov    %rax,%rsp
  400a29:	49 89 d9             	mov    %rbx,%r9
  400a2c:	49 89 c9             	mov    %rcx,%r9
  400a2f:	49 89 d1             	mov    %rdx,%r9
  400a32:	49 89 f1             	mov    %rsi,%r9
  400a35:	49 89 f9             	mov    %rdi,%r9
  400a38:	49 89 e9             	mov    %rbp,%r9
  400a3b:	49 89 e1             	mov    %rsp,%r9
  400a3e:	4d 89 c1             	mov    %r8,%r9
  400a41:	4d 89 c9             	mov    %r9,%r9
  400a44:	4d 89 d1             	mov    %r10,%r9
  400a47:	4d 89 d9             	mov    %r11,%r9
  400a4a:	4d 89 e1             	mov    %r12,%r9
  400a4d:	4d 89 e9             	mov    %r13,%r9
  400a50:	4d 89 f1             	mov    %r14,%r9
  400a53:	4d 89 f9             	mov    %r15,%r9

0000000000400a56 <mov_r_r10>:
  400a56:	48 89 c4             	mov    %rax,%rsp
  400a59:	49 89 da             	mov    %rbx,%r10
  400a5c:	49 89 ca             	mov    %rcx,%r10
  400a5f:	49 89 d2             	mov    %rdx,%r10
  400a62:	49 89 f2             	mov    %rsi,%r10
  400a65:	49 89 fa             	mov    %rdi,%r10
  400a68:	49 89 ea             	mov    %rbp,%r10
  400a6b:	49 89 e2             	mov    %rsp,%r10
  400a6e:	4d 89 c2             	mov    %r8,%r10
  400a71:	4d 89 ca             	mov    %r9,%r10
  400a74:	4d 89 d2             	mov    %r10,%r10
  400a77:	4d 89 da             	mov    %r11,%r10
  400a7a:	4d 89 e2             	mov    %r12,%r10
  400a7d:	4d 89 ea             	mov    %r13,%r10
  400a80:	4d 89 f2             	mov    %r14,%r10
  400a83:	4d 89 fa             	mov    %r15,%r10

0000000000400a86 <mov_r_r11>:
  400a86:	48 89 c4             	mov    %rax,%rsp
  400a89:	49 89 db             	mov    %rbx,%r11
  400a8c:	49 89 cb             	mov    %rcx,%r11
  400a8f:	49 89 d3             	mov    %rdx,%r11
  400a92:	49 89 f3             	mov    %rsi,%r11
  400a95:	49 89 fb             	mov    %rdi,%r11
  400a98:	49 89 eb             	mov    %rbp,%r11
  400a9b:	49 89 e3             	mov    %rsp,%r11
  400a9e:	4d 89 c3             	mov    %r8,%r11
  400aa1:	4d 89 cb             	mov    %r9,%r11
  400aa4:	4d 89 d3             	mov    %r10,%r11
  400aa7:	4d 89 db             	mov    %r11,%r11
  400aaa:	4d 89 e3             	mov    %r12,%r11
  400aad:	4d 89 eb             	mov    %r13,%r11
  400ab0:	4d 89 f3             	mov    %r14,%r11
  400ab3:	4d 89 fb             	mov    %r15,%r11

0000000000400ab6 <mov_r_r12>:
  400ab6:	48 89 c4             	mov    %rax,%rsp
  400ab9:	49 89 dc             	mov    %rbx,%r12
  400abc:	49 89 cc             	mov    %rcx,%r12
  400abf:	49 89 d4             	mov    %rdx,%r12
  400ac2:	49 89 f4             	mov    %rsi,%r12
  400ac5:	49 89 fc             	mov    %rdi,%r12
  400ac8:	49 89 ec             	mov    %rbp,%r12
  400acb:	49 89 e4             	mov    %rsp,%r12
  400ace:	4d 89 c4             	mov    %r8,%r12
  400ad1:	4d 89 cc             	mov    %r9,%r12
  400ad4:	4d 89 d4             	mov    %r10,%r12
  400ad7:	4d 89 dc             	mov    %r11,%r12
  400ada:	4d 89 e4             	mov    %r12,%r12
  400add:	4d 89 ec             	mov    %r13,%r12
  400ae0:	4d 89 f4             	mov    %r14,%r12
  400ae3:	4d 89 fc             	mov    %r15,%r12

0000000000400ae6 <mov_r_r13>:
  400ae6:	48 89 c4             	mov    %rax,%rsp
  400ae9:	49 89 dd             	mov    %rbx,%r13
  400aec:	49 89 cd             	mov    %rcx,%r13
  400aef:	49 89 d5             	mov    %rdx,%r13
  400af2:	49 89 f5             	mov    %rsi,%r13
  400af5:	49 89 fd             	mov    %rdi,%r13
  400af8:	49 89 ed             	mov    %rbp,%r13
  400afb:	49 89 e5             	mov    %rsp,%r13
  400afe:	4d 89 c5             	mov    %r8,%r13
  400b01:	4d 89 cd             	mov    %r9,%r13
  400b04:	4d 89 d5             	mov    %r10,%r13
  400b07:	4d 89 dd             	mov    %r11,%r13
  400b0a:	4d 89 e5             	mov    %r12,%r13
  400b0d:	4d 89 ed             	mov    %r13,%r13
  400b10:	4d 89 f5             	mov    %r14,%r13
  400b13:	4d 89 fd             	mov    %r15,%r13

0000000000400b16 <mov_r_r14>:
  400b16:	48 89 c4             	mov    %rax,%rsp
  400b19:	49 89 de             	mov    %rbx,%r14
  400b1c:	49 89 ce             	mov    %rcx,%r14
  400b1f:	49 89 d6             	mov    %rdx,%r14
  400b22:	49 89 f6             	mov    %rsi,%r14
  400b25:	49 89 fe             	mov    %rdi,%r14
  400b28:	49 89 ee             	mov    %rbp,%r14
  400b2b:	49 89 e6             	mov    %rsp,%r14
  400b2e:	4d 89 c6             	mov    %r8,%r14
  400b31:	4d 89 ce             	mov    %r9,%r14
  400b34:	4d 89 d6             	mov    %r10,%r14
  400b37:	4d 89 de             	mov    %r11,%r14
  400b3a:	4d 89 e6             	mov    %r12,%r14
  400b3d:	4d 89 ee             	mov    %r13,%r14
  400b40:	4d 89 f6             	mov    %r14,%r14
  400b43:	4d 89 fe             	mov    %r15,%r14

0000000000400b46 <mov_r_r15>:
  400b46:	48 89 c4             	mov    %rax,%rsp
  400b49:	49 89 df             	mov    %rbx,%r15
  400b4c:	49 89 cf             	mov    %rcx,%r15
  400b4f:	49 89 d7             	mov    %rdx,%r15
  400b52:	49 89 f7             	mov    %rsi,%r15
  400b55:	49 89 ff             	mov    %rdi,%r15
  400b58:	49 89 ef             	mov    %rbp,%r15
  400b5b:	49 89 e7             	mov    %rsp,%r15
  400b5e:	4d 89 c7             	mov    %r8,%r15
  400b61:	4d 89 cf             	mov    %r9,%r15
  400b64:	4d 89 d7             	mov    %r10,%r15
  400b67:	4d 89 df             	mov    %r11,%r15
  400b6a:	4d 89 e7             	mov    %r12,%r15
  400b6d:	4d 89 ef             	mov    %r13,%r15
  400b70:	4d 89 f7             	mov    %r14,%r15
  400b73:	4d 89 ff             	mov    %r15,%r15

0000000000400b76 <mov_m64_rax>:
  400b76:	48 8b 00             	mov    (%rax),%rax
  400b79:	48 8b 03             	mov    (%rbx),%rax
  400b7c:	48 8b 01             	mov    (%rcx),%rax
  400b7f:	48 8b 02             	mov    (%rdx),%rax
  400b82:	48 8b 06             	mov    (%rsi),%rax
  400b85:	48 8b 07             	mov    (%rdi),%rax
  400b88:	48 8b 45 00          	mov    0x0(%rbp),%rax
  400b8c:	48 8b 04 24          	mov    (%rsp),%rax
  400b90:	49 8b 00             	mov    (%r8),%rax
  400b93:	49 8b 01             	mov    (%r9),%rax
  400b96:	49 8b 02             	mov    (%r10),%rax
  400b99:	49 8b 03             	mov    (%r11),%rax
  400b9c:	49 8b 04 24          	mov    (%r12),%rax
  400ba0:	49 8b 45 00          	mov    0x0(%r13),%rax
  400ba4:	49 8b 06             	mov    (%r14),%rax
  400ba7:	49 8b 07             	mov    (%r15),%rax

0000000000400baa <mov_rax_m64>:
  400baa:	48 89 00             	mov    %rax,(%rax)
  400bad:	48 89 03             	mov    %rax,(%rbx)
  400bb0:	48 89 01             	mov    %rax,(%rcx)
  400bb3:	48 89 02             	mov    %rax,(%rdx)
  400bb6:	48 89 06             	mov    %rax,(%rsi)
  400bb9:	48 89 07             	mov    %rax,(%rdi)
  400bbc:	48 89 45 00          	mov    %rax,0x0(%rbp)
  400bc0:	48 89 04 24          	mov    %rax,(%rsp)
  400bc4:	49 89 00             	mov    %rax,(%r8)
  400bc7:	49 89 01             	mov    %rax,(%r9)
  400bca:	49 89 02             	mov    %rax,(%r10)
  400bcd:	49 89 03             	mov    %rax,(%r11)
  400bd0:	49 89 04 24          	mov    %rax,(%r12)
  400bd4:	49 89 45 00          	mov    %rax,0x0(%r13)
  400bd8:	49 89 06             	mov    %rax,(%r14)
  400bdb:	49 89 07             	mov    %rax,(%r15)

0000000000400bde <mov_m64_rax_disp8>:
  400bde:	48 8b 40 11          	mov    0x11(%rax),%rax
  400be2:	48 8b 43 11          	mov    0x11(%rbx),%rax
  400be6:	48 8b 41 11          	mov    0x11(%rcx),%rax
  400bea:	48 8b 42 11          	mov    0x11(%rdx),%rax
  400bee:	48 8b 46 11          	mov    0x11(%rsi),%rax
  400bf2:	48 8b 47 11          	mov    0x11(%rdi),%rax
  400bf6:	48 8b 45 11          	mov    0x11(%rbp),%rax
  400bfa:	48 8b 44 24 11       	mov    0x11(%rsp),%rax
  400bff:	49 8b 40 11          	mov    0x11(%r8),%rax
  400c03:	49 8b 41 11          	mov    0x11(%r9),%rax
  400c07:	49 8b 42 11          	mov    0x11(%r10),%rax
  400c0b:	49 8b 43 11          	mov    0x11(%r11),%rax
  400c0f:	49 8b 44 24 11       	mov    0x11(%r12),%rax
  400c14:	49 8b 45 11          	mov    0x11(%r13),%rax
  400c18:	49 8b 46 11          	mov    0x11(%r14),%rax
  400c1c:	49 8b 47 11          	mov    0x11(%r15),%rax

0000000000400c20 <mov_rax_m64_disp8>:
  400c20:	48 89 40 11          	mov    %rax,0x11(%rax)
  400c24:	48 89 43 11          	mov    %rax,0x11(%rbx)
  400c28:	48 89 41 11          	mov    %rax,0x11(%rcx)
  400c2c:	48 89 42 11          	mov    %rax,0x11(%rdx)
  400c30:	48 89 46 11          	mov    %rax,0x11(%rsi)
  400c34:	48 89 47 11          	mov    %rax,0x11(%rdi)
  400c38:	48 89 45 11          	mov    %rax,0x11(%rbp)
  400c3c:	48 89 44 24 11       	mov    %rax,0x11(%rsp)
  400c41:	49 89 40 11          	mov    %rax,0x11(%r8)
  400c45:	49 89 41 11          	mov    %rax,0x11(%r9)
  400c49:	49 89 42 11          	mov    %rax,0x11(%r10)
  400c4d:	49 89 43 11          	mov    %rax,0x11(%r11)
  400c51:	49 89 44 24 11       	mov    %rax,0x11(%r12)
  400c56:	49 89 45 11          	mov    %rax,0x11(%r13)
  400c5a:	49 89 46 11          	mov    %rax,0x11(%r14)
  400c5e:	49 89 47 11          	mov    %rax,0x11(%r15)

0000000000400c62 <mov_m64_rax_disp32>:
  400c62:	48 8b 80 44 33 22 11 	mov    0x11223344(%rax),%rax
  400c69:	48 8b 83 44 33 22 11 	mov    0x11223344(%rbx),%rax
  400c70:	48 8b 81 44 33 22 11 	mov    0x11223344(%rcx),%rax
  400c77:	48 8b 82 44 33 22 11 	mov    0x11223344(%rdx),%rax
  400c7e:	48 8b 86 44 33 22 11 	mov    0x11223344(%rsi),%rax
  400c85:	48 8b 87 44 33 22 11 	mov    0x11223344(%rdi),%rax
  400c8c:	48 8b 85 44 33 22 11 	mov    0x11223344(%rbp),%rax
  400c93:	48 8b 84 24 44 33 22 	mov    0x11223344(%rsp),%rax
  400c9a:	11 
  400c9b:	49 8b 80 44 33 22 11 	mov    0x11223344(%r8),%rax
  400ca2:	49 8b 81 44 33 22 11 	mov    0x11223344(%r9),%rax
  400ca9:	49 8b 82 44 33 22 11 	mov    0x11223344(%r10),%rax
  400cb0:	49 8b 83 44 33 22 11 	mov    0x11223344(%r11),%rax
  400cb7:	49 8b 84 24 44 33 22 	mov    0x11223344(%r12),%rax
  400cbe:	11 
  400cbf:	49 8b 85 44 33 22 11 	mov    0x11223344(%r13),%rax
  400cc6:	49 8b 86 44 33 22 11 	mov    0x11223344(%r14),%rax
  400ccd:	49 8b 87 44 33 22 11 	mov    0x11223344(%r15),%rax

0000000000400cd4 <mov_m64_rax_sib8>:
  400cd4:	48 8b 44 00 11       	mov    0x11(%rax,%rax,1),%rax
  400cd9:	48 8b 44 40 11       	mov    0x11(%rax,%rax,2),%rax
  400cde:	48 8b 44 80 11       	mov    0x11(%rax,%rax,4),%rax
  400ce3:	48 8b 44 c0 11       	mov    0x11(%rax,%rax,8),%rax
  400ce8:	48 8b 44 03 11       	mov    0x11(%rbx,%rax,1),%rax
  400ced:	48 8b 44 43 11       	mov    0x11(%rbx,%rax,2),%rax
  400cf2:	48 8b 44 83 11       	mov    0x11(%rbx,%rax,4),%rax
  400cf7:	48 8b 44 c3 11       	mov    0x11(%rbx,%rax,8),%rax
  400cfc:	48 8b 44 18 11       	mov    0x11(%rax,%rbx,1),%rax
  400d01:	48 8b 44 58 11       	mov    0x11(%rax,%rbx,2),%rax
  400d06:	48 8b 44 98 11       	mov    0x11(%rax,%rbx,4),%rax
  400d0b:	48 8b 44 d8 11       	mov    0x11(%rax,%rbx,8),%rax

0000000000400d10 <mov_m64_rax_sib32>:
  400d10:	48 8b 84 00 44 33 22 	mov    0x11223344(%rax,%rax,1),%rax
  400d17:	11 
  400d18:	48 8b 84 40 44 33 22 	mov    0x11223344(%rax,%rax,2),%rax
  400d1f:	11 
  400d20:	48 8b 84 80 44 33 22 	mov    0x11223344(%rax,%rax,4),%rax
  400d27:	11 
  400d28:	48 8b 84 c0 44 33 22 	mov    0x11223344(%rax,%rax,8),%rax
  400d2f:	11 
  400d30:	48 8b 84 03 44 33 22 	mov    0x11223344(%rbx,%rax,1),%rax
  400d37:	11 
  400d38:	48 8b 84 43 44 33 22 	mov    0x11223344(%rbx,%rax,2),%rax
  400d3f:	11 
  400d40:	48 8b 84 83 44 33 22 	mov    0x11223344(%rbx,%rax,4),%rax
  400d47:	11 
  400d48:	48 8b 84 c3 44 33 22 	mov    0x11223344(%rbx,%rax,8),%rax
  400d4f:	11 
  400d50:	48 8b 84 18 44 33 22 	mov    0x11223344(%rax,%rbx,1),%rax
  400d57:	11 
  400d58:	48 8b 84 58 44 33 22 	mov    0x11223344(%rax,%rbx,2),%rax
  400d5f:	11 
  400d60:	48 8b 84 98 44 33 22 	mov    0x11223344(%rax,%rbx,4),%rax
  400d67:	11 
  400d68:	48 8b 84 d8 44 33 22 	mov    0x11223344(%rax,%rbx,8),%rax
  400d6f:	11 

0000000000400d70 <add_r64_rax>:
  400d70:	48 01 c0             	add    %rax,%rax
  400d73:	48 01 d8             	add    %rbx,%rax
  400d76:	48 01 c8             	add    %rcx,%rax
  400d79:	48 01 d0             	add    %rdx,%rax
  400d7c:	48 01 f0             	add    %rsi,%rax
  400d7f:	48 01 f8             	add    %rdi,%rax
  400d82:	48 01 e8             	add    %rbp,%rax
  400d85:	48 01 e0             	add    %rsp,%rax
  400d88:	4c 01 c0             	add    %r8,%rax
  400d8b:	4c 01 c8             	add    %r9,%rax
  400d8e:	4c 01 d0             	add    %r10,%rax
  400d91:	4c 01 d8             	add    %r11,%rax
  400d94:	4c 01 e0             	add    %r12,%rax
  400d97:	4c 01 e8             	add    %r13,%rax
  400d9a:	4c 01 f0             	add    %r14,%rax
  400d9d:	4c 01 f8             	add    %r15,%rax

0000000000400da0 <add_rax_r64>:
  400da0:	48 01 c0             	add    %rax,%rax
  400da3:	48 01 c3             	add    %rax,%rbx
  400da6:	48 01 c1             	add    %rax,%rcx
  400da9:	48 01 c2             	add    %rax,%rdx
  400dac:	48 01 c6             	add    %rax,%rsi
  400daf:	48 01 c7             	add    %rax,%rdi
  400db2:	48 01 c5             	add    %rax,%rbp
  400db5:	48 01 c4             	add    %rax,%rsp
  400db8:	49 01 c0             	add    %rax,%r8
  400dbb:	49 01 c1             	add    %rax,%r9
  400dbe:	49 01 c2             	add    %rax,%r10
  400dc1:	49 01 c3             	add    %rax,%r11
  400dc4:	49 01 c4             	add    %rax,%r12
  400dc7:	49 01 c5             	add    %rax,%r13
  400dca:	49 01 c6             	add    %rax,%r14
  400dcd:	49 01 c7             	add    %rax,%r15

0000000000400dd0 <add_rax>:
  400dd0:	48 03 00             	add    (%rax),%rax
  400dd3:	48 03 40 11          	add    0x11(%rax),%rax
  400dd7:	48 03 80 44 33 22 11 	add    0x11223344(%rax),%rax
  400dde:	48 03 44 00 11       	add    0x11(%rax,%rax,1),%rax
  400de3:	48 03 84 00 44 33 22 	add    0x11223344(%rax,%rax,1),%rax
  400dea:	11 

0000000000400deb <add_m64_rax>:
  400deb:	48 03 00             	add    (%rax),%rax
  400dee:	48 03 03             	add    (%rbx),%rax
  400df1:	48 03 01             	add    (%rcx),%rax
  400df4:	48 03 02             	add    (%rdx),%rax
  400df7:	48 03 06             	add    (%rsi),%rax
  400dfa:	48 03 07             	add    (%rdi),%rax
  400dfd:	48 03 45 00          	add    0x0(%rbp),%rax
  400e01:	48 03 04 24          	add    (%rsp),%rax
  400e05:	49 03 00             	add    (%r8),%rax
  400e08:	49 03 01             	add    (%r9),%rax
  400e0b:	49 03 02             	add    (%r10),%rax
  400e0e:	49 03 03             	add    (%r11),%rax
  400e11:	49 03 04 24          	add    (%r12),%rax
  400e15:	49 03 45 00          	add    0x0(%r13),%rax
  400e19:	49 03 06             	add    (%r14),%rax
  400e1c:	49 03 07             	add    (%r15),%rax

0000000000400e1f <inc_r64>:
  400e1f:	48 ff c0             	inc    %rax
  400e22:	48 ff c3             	inc    %rbx
  400e25:	48 ff c1             	inc    %rcx
  400e28:	48 ff c2             	inc    %rdx
  400e2b:	48 ff c6             	inc    %rsi
  400e2e:	48 ff c7             	inc    %rdi
  400e31:	48 ff c5             	inc    %rbp
  400e34:	48 ff c4             	inc    %rsp
  400e37:	49 ff c0             	inc    %r8
  400e3a:	49 ff c1             	inc    %r9
  400e3d:	49 ff c2             	inc    %r10
  400e40:	49 ff c3             	inc    %r11
  400e43:	49 ff c4             	inc    %r12
  400e46:	49 ff c5             	inc    %r13
  400e49:	49 ff c6             	inc    %r14
  400e4c:	49 ff c7             	inc    %r15

0000000000400e4f <inc_r32>:
  400e4f:	ff c0                	inc    %eax
  400e51:	ff c3                	inc    %ebx
  400e53:	ff c1                	inc    %ecx
  400e55:	ff c2                	inc    %edx
  400e57:	ff c6                	inc    %esi
  400e59:	ff c7                	inc    %edi
  400e5b:	ff c5                	inc    %ebp
  400e5d:	ff c4                	inc    %esp
  400e5f:	41 ff c0             	inc    %r8d
  400e62:	41 ff c1             	inc    %r9d
  400e65:	41 ff c2             	inc    %r10d
  400e68:	41 ff c3             	inc    %r11d
  400e6b:	41 ff c4             	inc    %r12d
  400e6e:	41 ff c5             	inc    %r13d
  400e71:	41 ff c6             	inc    %r14d
  400e74:	41 ff c7             	inc    %r15d

0000000000400e77 <inc_r8>:
  400e77:	fe c0                	inc    %al
  400e79:	fe c3                	inc    %bl
  400e7b:	fe c1                	inc    %cl
  400e7d:	fe c2                	inc    %dl
  400e7f:	40 fe c6             	inc    %sil
  400e82:	40 fe c7             	inc    %dil
  400e85:	40 fe c5             	inc    %bpl
  400e88:	40 fe c4             	inc    %spl
  400e8b:	41 fe c0             	inc    %r8b
  400e8e:	41 fe c1             	inc    %r9b
  400e91:	41 fe c2             	inc    %r10b
  400e94:	41 fe c3             	inc    %r11b
  400e97:	41 fe c4             	inc    %r12b
  400e9a:	41 fe c5             	inc    %r13b
  400e9d:	41 fe c6             	inc    %r14b
  400ea0:	41 fe c7             	inc    %r15b

0000000000400ea3 <dec_r64>:
  400ea3:	48 ff c8             	dec    %rax
  400ea6:	48 ff cb             	dec    %rbx
  400ea9:	48 ff c9             	dec    %rcx
  400eac:	48 ff ca             	dec    %rdx
  400eaf:	48 ff ce             	dec    %rsi
  400eb2:	48 ff cf             	dec    %rdi
  400eb5:	48 ff cd             	dec    %rbp
  400eb8:	48 ff cc             	dec    %rsp
  400ebb:	49 ff c8             	dec    %r8
  400ebe:	49 ff c9             	dec    %r9
  400ec1:	49 ff ca             	dec    %r10
  400ec4:	49 ff cb             	dec    %r11
  400ec7:	49 ff cc             	dec    %r12
  400eca:	49 ff cd             	dec    %r13
  400ecd:	49 ff ce             	dec    %r14
  400ed0:	49 ff cf             	dec    %r15

0000000000400ed3 <dec_r32>:
  400ed3:	ff c8                	dec    %eax
  400ed5:	ff cb                	dec    %ebx
  400ed7:	ff c9                	dec    %ecx
  400ed9:	ff ca                	dec    %edx
  400edb:	ff ce                	dec    %esi
  400edd:	ff cf                	dec    %edi
  400edf:	ff cd                	dec    %ebp
  400ee1:	ff cc                	dec    %esp
  400ee3:	41 ff c8             	dec    %r8d
  400ee6:	41 ff c9             	dec    %r9d
  400ee9:	41 ff ca             	dec    %r10d
  400eec:	41 ff cb             	dec    %r11d
  400eef:	41 ff cc             	dec    %r12d
  400ef2:	41 ff cd             	dec    %r13d
  400ef5:	41 ff ce             	dec    %r14d
  400ef8:	41 ff cf             	dec    %r15d

0000000000400efb <dec_r8>:
  400efb:	fe c8                	dec    %al
  400efd:	fe cb                	dec    %bl
  400eff:	fe c9                	dec    %cl
  400f01:	fe ca                	dec    %dl
  400f03:	40 fe ce             	dec    %sil
  400f06:	40 fe cf             	dec    %dil
  400f09:	40 fe cd             	dec    %bpl
  400f0c:	40 fe cc             	dec    %spl
  400f0f:	41 fe c8             	dec    %r8b
  400f12:	41 fe c9             	dec    %r9b
  400f15:	41 fe ca             	dec    %r10b
  400f18:	41 fe cb             	dec    %r11b
  400f1b:	41 fe cc             	dec    %r12b
  400f1e:	41 fe cd             	dec    %r13b
  400f21:	41 fe ce             	dec    %r14b
  400f24:	41 fe cf             	dec    %r15b

0000000000400f27 <jmp>:
  400f27:	e9 e5 f0 bf ff       	jmpq   11 <_init-0x40041f>
  400f2c:	e9 f1 01 c0 ff       	jmpq   1122 <_init-0x3ff30e>
  400f31:	e9 fd 12 d1 ff       	jmpq   112233 <_init-0x2ee1fd>
  400f36:	e9 09 24 e2 10       	jmpq   11223344 <_end+0x10c2201c>
  400f3b:	0f 1f 44 00 00       	nopl   0x0(%rax,%rax,1)

0000000000400f40 <__libc_csu_init>:
  400f40:	41 57                	push   %r15
  400f42:	41 89 ff             	mov    %edi,%r15d
  400f45:	41 56                	push   %r14
  400f47:	49 89 f6             	mov    %rsi,%r14
  400f4a:	41 55                	push   %r13
  400f4c:	49 89 d5             	mov    %rdx,%r13
  400f4f:	41 54                	push   %r12
  400f51:	4c 8d 25 70 01 20 00 	lea    0x200170(%rip),%r12        # 6010c8 <__frame_dummy_init_array_entry>
  400f58:	55                   	push   %rbp
  400f59:	48 8d 2d 70 01 20 00 	lea    0x200170(%rip),%rbp        # 6010d0 <__init_array_end>
  400f60:	53                   	push   %rbx
  400f61:	4c 29 e5             	sub    %r12,%rbp
  400f64:	31 db                	xor    %ebx,%ebx
  400f66:	48 c1 fd 03          	sar    $0x3,%rbp
  400f6a:	48 83 ec 08          	sub    $0x8,%rsp
  400f6e:	e8 bd f4 ff ff       	callq  400430 <_init>
  400f73:	48 85 ed             	test   %rbp,%rbp
  400f76:	74 1e                	je     400f96 <__libc_csu_init+0x56>
  400f78:	0f 1f 84 00 00 00 00 	nopl   0x0(%rax,%rax,1)
  400f7f:	00 
  400f80:	4c 89 ea             	mov    %r13,%rdx
  400f83:	4c 89 f6             	mov    %r14,%rsi
  400f86:	44 89 ff             	mov    %r15d,%edi
  400f89:	41 ff 14 dc          	callq  *(%r12,%rbx,8)
  400f8d:	48 83 c3 01          	add    $0x1,%rbx
  400f91:	48 39 eb             	cmp    %rbp,%rbx
  400f94:	75 ea                	jne    400f80 <__libc_csu_init+0x40>
  400f96:	48 83 c4 08          	add    $0x8,%rsp
  400f9a:	5b                   	pop    %rbx
  400f9b:	5d                   	pop    %rbp
  400f9c:	41 5c                	pop    %r12
  400f9e:	41 5d                	pop    %r13
  400fa0:	41 5e                	pop    %r14
  400fa2:	41 5f                	pop    %r15
  400fa4:	c3                   	retq   
  400fa5:	66 66 2e 0f 1f 84 00 	data16 nopw %cs:0x0(%rax,%rax,1)
  400fac:	00 00 00 00 

0000000000400fb0 <__libc_csu_fini>:
  400fb0:	f3 c3                	repz retq 

Disassembly of section .fini:

0000000000400fb4 <_fini>:
  400fb4:	48 83 ec 08          	sub    $0x8,%rsp
  400fb8:	48 83 c4 08          	add    $0x8,%rsp
  400fbc:	c3                   	retq   
